

Microchip Technology PIC LITE Macro Assembler V1.37 build -260352376 
                                                                                               Mon Sep 19 21:23:38 2016

Microchip Technology Omniscient Code Generator v1.37 (Free mode) build 201603110536
     1                           	processor	16F73
     2                           	opt	pw 120
     3                           	opt	lm
     4                           	psect	idataBANK0,global,class=CODE,delta=2
     5                           	psect	stringtext,global,reloc=256,class=STRCODE,delta=2
     6                           	psect	cinit,global,class=CODE,merge=1,delta=2
     7                           	psect	bssBANK0,global,class=BANK0,space=1,delta=1
     8                           	psect	dataBANK0,global,class=BANK0,space=1,delta=1
     9                           	psect	clrtext,global,class=CODE,delta=2
    10                           	psect	cstackCOMMON,global,class=COMMON,space=1,delta=1
    11                           	psect	cstackBANK0,global,class=BANK0,space=1,delta=1
    12                           	psect	maintext,global,class=CODE,split=1,delta=2
    13                           	psect	text1,local,class=CODE,merge=1,delta=2
    14                           	psect	text2,local,class=CODE,merge=1,delta=2
    15                           	psect	text3,local,class=CODE,merge=1,delta=2
    16                           	psect	text4,local,class=CODE,merge=1,delta=2
    17                           	psect	text5,local,class=CODE,merge=1,delta=2
    18                           	psect	text6,local,class=CODE,merge=1,delta=2
    19                           	psect	text7,local,class=CODE,merge=1,delta=2
    20                           	psect	text8,local,class=CODE,merge=1,delta=2
    21                           	psect	text9,local,class=CODE,merge=1,delta=2
    22                           	psect	text10,local,class=CODE,merge=1,delta=2
    23                           	psect	text11,local,class=CODE,merge=1,delta=2
    24                           	psect	text12,local,class=CODE,merge=1,delta=2
    25                           	psect	text13,local,class=CODE,merge=1,delta=2
    26                           	psect	text14,local,class=CODE,merge=1,delta=2
    27                           	psect	text15,local,class=CODE,merge=1,delta=2
    28                           	psect	text16,local,class=CODE,merge=1,delta=2
    29                           	psect	text17,local,class=CODE,merge=1,delta=2
    30                           	psect	text18,local,class=CODE,merge=1,delta=2
    31                           	psect	text19,local,class=CODE,merge=1,delta=2
    32                           	psect	intentry,global,class=CODE,delta=2
    33                           	dabs	1,0x7E,2
    34  0000                     	;# 
    35  0001                     	;# 
    36  0002                     	;# 
    37  0003                     	;# 
    38  0004                     	;# 
    39  0005                     	;# 
    40  0006                     	;# 
    41  0007                     	;# 
    42  000A                     	;# 
    43  000B                     	;# 
    44  000C                     	;# 
    45  000D                     	;# 
    46  000E                     	;# 
    47  000E                     	;# 
    48  000F                     	;# 
    49  0010                     	;# 
    50  0011                     	;# 
    51  0012                     	;# 
    52  0013                     	;# 
    53  0014                     	;# 
    54  0015                     	;# 
    55  0015                     	;# 
    56  0016                     	;# 
    57  0017                     	;# 
    58  0018                     	;# 
    59  0019                     	;# 
    60  001A                     	;# 
    61  001B                     	;# 
    62  001B                     	;# 
    63  001C                     	;# 
    64  001D                     	;# 
    65  001E                     	;# 
    66  001F                     	;# 
    67  0081                     	;# 
    68  0085                     	;# 
    69  0086                     	;# 
    70  0087                     	;# 
    71  008C                     	;# 
    72  008D                     	;# 
    73  008E                     	;# 
    74  0092                     	;# 
    75  0093                     	;# 
    76  0094                     	;# 
    77  0098                     	;# 
    78  0099                     	;# 
    79  009F                     	;# 
    80  010C                     	;# 
    81  010D                     	;# 
    82  010E                     	;# 
    83  010F                     	;# 
    84  018C                     	;# 
    85  0000                     	;# 
    86  0001                     	;# 
    87  0002                     	;# 
    88  0003                     	;# 
    89  0004                     	;# 
    90  0005                     	;# 
    91  0006                     	;# 
    92  0007                     	;# 
    93  000A                     	;# 
    94  000B                     	;# 
    95  000C                     	;# 
    96  000D                     	;# 
    97  000E                     	;# 
    98  000E                     	;# 
    99  000F                     	;# 
   100  0010                     	;# 
   101  0011                     	;# 
   102  0012                     	;# 
   103  0013                     	;# 
   104  0014                     	;# 
   105  0015                     	;# 
   106  0015                     	;# 
   107  0016                     	;# 
   108  0017                     	;# 
   109  0018                     	;# 
   110  0019                     	;# 
   111  001A                     	;# 
   112  001B                     	;# 
   113  001B                     	;# 
   114  001C                     	;# 
   115  001D                     	;# 
   116  001E                     	;# 
   117  001F                     	;# 
   118  0081                     	;# 
   119  0085                     	;# 
   120  0086                     	;# 
   121  0087                     	;# 
   122  008C                     	;# 
   123  008D                     	;# 
   124  008E                     	;# 
   125  0092                     	;# 
   126  0093                     	;# 
   127  0094                     	;# 
   128  0098                     	;# 
   129  0099                     	;# 
   130  009F                     	;# 
   131  010C                     	;# 
   132  010D                     	;# 
   133  010E                     	;# 
   134  010F                     	;# 
   135  018C                     	;# 
   136  0000                     	;# 
   137  0001                     	;# 
   138  0002                     	;# 
   139  0003                     	;# 
   140  0004                     	;# 
   141  0005                     	;# 
   142  0006                     	;# 
   143  0007                     	;# 
   144  000A                     	;# 
   145  000B                     	;# 
   146  000C                     	;# 
   147  000D                     	;# 
   148  000E                     	;# 
   149  000E                     	;# 
   150  000F                     	;# 
   151  0010                     	;# 
   152  0011                     	;# 
   153  0012                     	;# 
   154  0013                     	;# 
   155  0014                     	;# 
   156  0015                     	;# 
   157  0015                     	;# 
   158  0016                     	;# 
   159  0017                     	;# 
   160  0018                     	;# 
   161  0019                     	;# 
   162  001A                     	;# 
   163  001B                     	;# 
   164  001B                     	;# 
   165  001C                     	;# 
   166  001D                     	;# 
   167  001E                     	;# 
   168  001F                     	;# 
   169  0081                     	;# 
   170  0085                     	;# 
   171  0086                     	;# 
   172  0087                     	;# 
   173  008C                     	;# 
   174  008D                     	;# 
   175  008E                     	;# 
   176  0092                     	;# 
   177  0093                     	;# 
   178  0094                     	;# 
   179  0098                     	;# 
   180  0099                     	;# 
   181  009F                     	;# 
   182  010C                     	;# 
   183  010D                     	;# 
   184  010E                     	;# 
   185  010F                     	;# 
   186  018C                     	;# 
   187  0000                     	;# 
   188  0001                     	;# 
   189  0002                     	;# 
   190  0003                     	;# 
   191  0004                     	;# 
   192  0005                     	;# 
   193  0006                     	;# 
   194  0007                     	;# 
   195  000A                     	;# 
   196  000B                     	;# 
   197  000C                     	;# 
   198  000D                     	;# 
   199  000E                     	;# 
   200  000E                     	;# 
   201  000F                     	;# 
   202  0010                     	;# 
   203  0011                     	;# 
   204  0012                     	;# 
   205  0013                     	;# 
   206  0014                     	;# 
   207  0015                     	;# 
   208  0015                     	;# 
   209  0016                     	;# 
   210  0017                     	;# 
   211  0018                     	;# 
   212  0019                     	;# 
   213  001A                     	;# 
   214  001B                     	;# 
   215  001B                     	;# 
   216  001C                     	;# 
   217  001D                     	;# 
   218  001E                     	;# 
   219  001F                     	;# 
   220  0081                     	;# 
   221  0085                     	;# 
   222  0086                     	;# 
   223  0087                     	;# 
   224  008C                     	;# 
   225  008D                     	;# 
   226  008E                     	;# 
   227  0092                     	;# 
   228  0093                     	;# 
   229  0094                     	;# 
   230  0098                     	;# 
   231  0099                     	;# 
   232  009F                     	;# 
   233  010C                     	;# 
   234  010D                     	;# 
   235  010E                     	;# 
   236  010F                     	;# 
   237  018C                     	;# 
   238  0000                     	;# 
   239  0001                     	;# 
   240  0002                     	;# 
   241  0003                     	;# 
   242  0004                     	;# 
   243  0005                     	;# 
   244  0006                     	;# 
   245  0007                     	;# 
   246  000A                     	;# 
   247  000B                     	;# 
   248  000C                     	;# 
   249  000D                     	;# 
   250  000E                     	;# 
   251  000E                     	;# 
   252  000F                     	;# 
   253  0010                     	;# 
   254  0011                     	;# 
   255  0012                     	;# 
   256  0013                     	;# 
   257  0014                     	;# 
   258  0015                     	;# 
   259  0015                     	;# 
   260  0016                     	;# 
   261  0017                     	;# 
   262  0018                     	;# 
   263  0019                     	;# 
   264  001A                     	;# 
   265  001B                     	;# 
   266  001B                     	;# 
   267  001C                     	;# 
   268  001D                     	;# 
   269  001E                     	;# 
   270  001F                     	;# 
   271  0081                     	;# 
   272  0085                     	;# 
   273  0086                     	;# 
   274  0087                     	;# 
   275  008C                     	;# 
   276  008D                     	;# 
   277  008E                     	;# 
   278  0092                     	;# 
   279  0093                     	;# 
   280  0094                     	;# 
   281  0098                     	;# 
   282  0099                     	;# 
   283  009F                     	;# 
   284  010C                     	;# 
   285  010D                     	;# 
   286  010E                     	;# 
   287  010F                     	;# 
   288  018C                     	;# 
   289                           
   290                           	psect	idataBANK0
   291  0D12                     __pidataBANK0:	
   292                           
   293                           ;initializer for _EEVSTEP
   294  0D12  345E               	retlw	94
   295  0D13  3401               	retlw	1
   296                           
   297                           ;initializer for _Clock
   298  0D14  343C               	retlw	60
   299                           
   300                           ;initializer for _InterTimes
   301  0D15  343D               	retlw	61
   302                           
   303                           ;initializer for _Minutes
   304  0D16  3414               	retlw	20
   305                           
   306                           	psect	stringtext
   307  0100                     __pstringtext:	
   308  0100                     stringtab:	
   309  0100                     __stringtab:	
   310                           
   311                           ;	String table - string pointers are 2 bytes each
   312  0100  1BFF               	btfsc	btemp+1,7
   313  0101  290A               	ljmp	stringcode
   314  0102  1383               	bcf	3,7
   315  0103  187F               	btfsc	btemp+1,0
   316  0104  1783               	bsf	3,7
   317  0105  0800               	movf	0,w
   318  0106  0A84               	incf	4,f
   319  0107  1903               	skipnz
   320  0108  0AFF               	incf	btemp+1,f
   321  0109  0008               	return
   322  010A                     stringcode:	
   323  010A  087F               	movf	btemp+1,w
   324  010B  397F               	andlw	127
   325  010C  008A               	movwf	10
   326  010D  0804               	movf	4,w
   327  010E  0A84               	incf	4,f
   328  010F  1903               	skipnz
   329  0110  0AFF               	incf	btemp+1,f
   330  0111  0082               	movwf	2
   331  0112                     __stringbase:	
   332  0112                     __end_of__stringtab:	
   333  0112                     _fkTempTab:	
   334  0112  34D8               	retlw	216
   335  0113  34FF               	retlw	255
   336  0114  34D8               	retlw	216
   337  0115  34FF               	retlw	255
   338  0116  34D8               	retlw	216
   339  0117  34FF               	retlw	255
   340  0118  34D8               	retlw	216
   341  0119  34FF               	retlw	255
   342  011A  34D8               	retlw	216
   343  011B  34FF               	retlw	255
   344  011C  34D8               	retlw	216
   345  011D  34FF               	retlw	255
   346  011E  34D8               	retlw	216
   347  011F  34FF               	retlw	255
   348  0120  34D8               	retlw	216
   349  0121  34FF               	retlw	255
   350  0122  34D8               	retlw	216
   351  0123  34FF               	retlw	255
   352  0124  34D8               	retlw	216
   353  0125  34FF               	retlw	255
   354  0126  34D9               	retlw	217
   355  0127  34FF               	retlw	255
   356  0128  34DA               	retlw	218
   357  0129  34FF               	retlw	255
   358  012A  34DB               	retlw	219
   359  012B  34FF               	retlw	255
   360  012C  34DD               	retlw	221
   361  012D  34FF               	retlw	255
   362  012E  34DE               	retlw	222
   363  012F  34FF               	retlw	255
   364  0130  34E0               	retlw	224
   365  0131  34FF               	retlw	255
   366  0132  34E1               	retlw	225
   367  0133  34FF               	retlw	255
   368  0134  34E2               	retlw	226
   369  0135  34FF               	retlw	255
   370  0136  34E3               	retlw	227
   371  0137  34FF               	retlw	255
   372  0138  34E4               	retlw	228
   373  0139  34FF               	retlw	255
   374  013A  34E5               	retlw	229
   375  013B  34FF               	retlw	255
   376  013C  34E6               	retlw	230
   377  013D  34FF               	retlw	255
   378  013E  34E7               	retlw	231
   379  013F  34FF               	retlw	255
   380  0140  34E8               	retlw	232
   381  0141  34FF               	retlw	255
   382  0142  34E9               	retlw	233
   383  0143  34FF               	retlw	255
   384  0144  34EA               	retlw	234
   385  0145  34FF               	retlw	255
   386  0146  34EB               	retlw	235
   387  0147  34FF               	retlw	255
   388  0148  34EC               	retlw	236
   389  0149  34FF               	retlw	255
   390  014A  34EC               	retlw	236
   391  014B  34FF               	retlw	255
   392  014C  34ED               	retlw	237
   393  014D  34FF               	retlw	255
   394  014E  34EE               	retlw	238
   395  014F  34FF               	retlw	255
   396  0150  34EF               	retlw	239
   397  0151  34FF               	retlw	255
   398  0152  34EF               	retlw	239
   399  0153  34FF               	retlw	255
   400  0154  34F0               	retlw	240
   401  0155  34FF               	retlw	255
   402  0156  34F1               	retlw	241
   403  0157  34FF               	retlw	255
   404  0158  34F1               	retlw	241
   405  0159  34FF               	retlw	255
   406  015A  34F2               	retlw	242
   407  015B  34FF               	retlw	255
   408  015C  34F3               	retlw	243
   409  015D  34FF               	retlw	255
   410  015E  34F3               	retlw	243
   411  015F  34FF               	retlw	255
   412  0160  34F4               	retlw	244
   413  0161  34FF               	retlw	255
   414  0162  34F4               	retlw	244
   415  0163  34FF               	retlw	255
   416  0164  34F5               	retlw	245
   417  0165  34FF               	retlw	255
   418  0166  34F5               	retlw	245
   419  0167  34FF               	retlw	255
   420  0168  34F6               	retlw	246
   421  0169  34FF               	retlw	255
   422  016A  34F7               	retlw	247
   423  016B  34FF               	retlw	255
   424  016C  34F7               	retlw	247
   425  016D  34FF               	retlw	255
   426  016E  34F8               	retlw	248
   427  016F  34FF               	retlw	255
   428  0170  34F8               	retlw	248
   429  0171  34FF               	retlw	255
   430  0172  34F9               	retlw	249
   431  0173  34FF               	retlw	255
   432  0174  34F9               	retlw	249
   433  0175  34FF               	retlw	255
   434  0176  34FA               	retlw	250
   435  0177  34FF               	retlw	255
   436  0178  34FA               	retlw	250
   437  0179  34FF               	retlw	255
   438  017A  34FB               	retlw	251
   439  017B  34FF               	retlw	255
   440  017C  34FB               	retlw	251
   441  017D  34FF               	retlw	255
   442  017E  34FC               	retlw	252
   443  017F  34FF               	retlw	255
   444  0180  34FC               	retlw	252
   445  0181  34FF               	retlw	255
   446  0182  34FD               	retlw	253
   447  0183  34FF               	retlw	255
   448  0184  34FD               	retlw	253
   449  0185  34FF               	retlw	255
   450  0186  34FE               	retlw	254
   451  0187  34FF               	retlw	255
   452  0188  34FF               	retlw	255
   453  0189  34FF               	retlw	255
   454  018A  34FF               	retlw	255
   455  018B  34FF               	retlw	255
   456  018C  3400               	retlw	0
   457  018D  3400               	retlw	0
   458  018E  3400               	retlw	0
   459  018F  3400               	retlw	0
   460  0190  3401               	retlw	1
   461  0191  3400               	retlw	0
   462  0192  3401               	retlw	1
   463  0193  3400               	retlw	0
   464  0194  3402               	retlw	2
   465  0195  3400               	retlw	0
   466  0196  3402               	retlw	2
   467  0197  3400               	retlw	0
   468  0198  3402               	retlw	2
   469  0199  3400               	retlw	0
   470  019A  3403               	retlw	3
   471  019B  3400               	retlw	0
   472  019C  3403               	retlw	3
   473  019D  3400               	retlw	0
   474  019E  3404               	retlw	4
   475  019F  3400               	retlw	0
   476  01A0  3404               	retlw	4
   477  01A1  3400               	retlw	0
   478  01A2  3404               	retlw	4
   479  01A3  3400               	retlw	0
   480  01A4  3405               	retlw	5
   481  01A5  3400               	retlw	0
   482  01A6  3405               	retlw	5
   483  01A7  3400               	retlw	0
   484  01A8  3406               	retlw	6
   485  01A9  3400               	retlw	0
   486  01AA  3406               	retlw	6
   487  01AB  3400               	retlw	0
   488  01AC  3407               	retlw	7
   489  01AD  3400               	retlw	0
   490  01AE  3407               	retlw	7
   491  01AF  3400               	retlw	0
   492  01B0  3408               	retlw	8
   493  01B1  3400               	retlw	0
   494  01B2  3408               	retlw	8
   495  01B3  3400               	retlw	0
   496  01B4  3408               	retlw	8
   497  01B5  3400               	retlw	0
   498  01B6  3409               	retlw	9
   499  01B7  3400               	retlw	0
   500  01B8  3409               	retlw	9
   501  01B9  3400               	retlw	0
   502  01BA  340A               	retlw	10
   503  01BB  3400               	retlw	0
   504  01BC  340A               	retlw	10
   505  01BD  3400               	retlw	0
   506  01BE  340A               	retlw	10
   507  01BF  3400               	retlw	0
   508  01C0  340B               	retlw	11
   509  01C1  3400               	retlw	0
   510  01C2  340B               	retlw	11
   511  01C3  3400               	retlw	0
   512  01C4  340C               	retlw	12
   513  01C5  3400               	retlw	0
   514  01C6  340C               	retlw	12
   515  01C7  3400               	retlw	0
   516  01C8  340C               	retlw	12
   517  01C9  3400               	retlw	0
   518  01CA  340D               	retlw	13
   519  01CB  3400               	retlw	0
   520  01CC  340D               	retlw	13
   521  01CD  3400               	retlw	0
   522  01CE  340E               	retlw	14
   523  01CF  3400               	retlw	0
   524  01D0  340E               	retlw	14
   525  01D1  3400               	retlw	0
   526  01D2  340E               	retlw	14
   527  01D3  3400               	retlw	0
   528  01D4  340F               	retlw	15
   529  01D5  3400               	retlw	0
   530  01D6  340F               	retlw	15
   531  01D7  3400               	retlw	0
   532  01D8  3410               	retlw	16
   533  01D9  3400               	retlw	0
   534  01DA  3410               	retlw	16
   535  01DB  3400               	retlw	0
   536  01DC  3410               	retlw	16
   537  01DD  3400               	retlw	0
   538  01DE  3411               	retlw	17
   539  01DF  3400               	retlw	0
   540  01E0  3411               	retlw	17
   541  01E1  3400               	retlw	0
   542  01E2  3412               	retlw	18
   543  01E3  3400               	retlw	0
   544  01E4  3412               	retlw	18
   545  01E5  3400               	retlw	0
   546  01E6  3412               	retlw	18
   547  01E7  3400               	retlw	0
   548  01E8  3413               	retlw	19
   549  01E9  3400               	retlw	0
   550  01EA  3413               	retlw	19
   551  01EB  3400               	retlw	0
   552  01EC  3414               	retlw	20
   553  01ED  3400               	retlw	0
   554  01EE  3414               	retlw	20
   555  01EF  3400               	retlw	0
   556  01F0  3414               	retlw	20
   557  01F1  3400               	retlw	0
   558  01F2  3415               	retlw	21
   559  01F3  3400               	retlw	0
   560  01F4  3415               	retlw	21
   561  01F5  3400               	retlw	0
   562  01F6  3415               	retlw	21
   563  01F7  3400               	retlw	0
   564  01F8  3416               	retlw	22
   565  01F9  3400               	retlw	0
   566  01FA  3416               	retlw	22
   567  01FB  3400               	retlw	0
   568  01FC  3416               	retlw	22
   569  01FD  3400               	retlw	0
   570  01FE  3417               	retlw	23
   571  01FF  3400               	retlw	0
   572  0200  3417               	retlw	23
   573  0201  3400               	retlw	0
   574  0202  3418               	retlw	24
   575  0203  3400               	retlw	0
   576  0204  3418               	retlw	24
   577  0205  3400               	retlw	0
   578  0206  3419               	retlw	25
   579  0207  3400               	retlw	0
   580  0208  3419               	retlw	25
   581  0209  3400               	retlw	0
   582  020A  3419               	retlw	25
   583  020B  3400               	retlw	0
   584  020C  341A               	retlw	26
   585  020D  3400               	retlw	0
   586  020E  341A               	retlw	26
   587  020F  3400               	retlw	0
   588  0210  341A               	retlw	26
   589  0211  3400               	retlw	0
   590  0212  341B               	retlw	27
   591  0213  3400               	retlw	0
   592  0214  341B               	retlw	27
   593  0215  3400               	retlw	0
   594  0216  341C               	retlw	28
   595  0217  3400               	retlw	0
   596  0218  341C               	retlw	28
   597  0219  3400               	retlw	0
   598  021A  341D               	retlw	29
   599  021B  3400               	retlw	0
   600  021C  341D               	retlw	29
   601  021D  3400               	retlw	0
   602  021E  341E               	retlw	30
   603  021F  3400               	retlw	0
   604  0220  341E               	retlw	30
   605  0221  3400               	retlw	0
   606  0222  341E               	retlw	30
   607  0223  3400               	retlw	0
   608  0224  341F               	retlw	31
   609  0225  3400               	retlw	0
   610  0226  341F               	retlw	31
   611  0227  3400               	retlw	0
   612  0228  3420               	retlw	32
   613  0229  3400               	retlw	0
   614  022A  3420               	retlw	32
   615  022B  3400               	retlw	0
   616  022C  3420               	retlw	32
   617  022D  3400               	retlw	0
   618  022E  3421               	retlw	33
   619  022F  3400               	retlw	0
   620  0230  3421               	retlw	33
   621  0231  3400               	retlw	0
   622  0232  3422               	retlw	34
   623  0233  3400               	retlw	0
   624  0234  3422               	retlw	34
   625  0235  3400               	retlw	0
   626  0236  3422               	retlw	34
   627  0237  3400               	retlw	0
   628  0238  3423               	retlw	35
   629  0239  3400               	retlw	0
   630  023A  3423               	retlw	35
   631  023B  3400               	retlw	0
   632  023C  3424               	retlw	36
   633  023D  3400               	retlw	0
   634  023E  3424               	retlw	36
   635  023F  3400               	retlw	0
   636  0240  3425               	retlw	37
   637  0241  3400               	retlw	0
   638  0242  3425               	retlw	37
   639  0243  3400               	retlw	0
   640  0244  3426               	retlw	38
   641  0245  3400               	retlw	0
   642  0246  3426               	retlw	38
   643  0247  3400               	retlw	0
   644  0248  3427               	retlw	39
   645  0249  3400               	retlw	0
   646  024A  3427               	retlw	39
   647  024B  3400               	retlw	0
   648  024C  3428               	retlw	40
   649  024D  3400               	retlw	0
   650  024E  3428               	retlw	40
   651  024F  3400               	retlw	0
   652  0250  3429               	retlw	41
   653  0251  3400               	retlw	0
   654  0252  3429               	retlw	41
   655  0253  3400               	retlw	0
   656  0254  3429               	retlw	41
   657  0255  3400               	retlw	0
   658  0256  342A               	retlw	42
   659  0257  3400               	retlw	0
   660  0258  342A               	retlw	42
   661  0259  3400               	retlw	0
   662  025A  342A               	retlw	42
   663  025B  3400               	retlw	0
   664  025C  342B               	retlw	43
   665  025D  3400               	retlw	0
   666  025E  342C               	retlw	44
   667  025F  3400               	retlw	0
   668  0260  342C               	retlw	44
   669  0261  3400               	retlw	0
   670  0262  342C               	retlw	44
   671  0263  3400               	retlw	0
   672  0264  342D               	retlw	45
   673  0265  3400               	retlw	0
   674  0266  342E               	retlw	46
   675  0267  3400               	retlw	0
   676  0268  342E               	retlw	46
   677  0269  3400               	retlw	0
   678  026A  342E               	retlw	46
   679  026B  3400               	retlw	0
   680  026C  342F               	retlw	47
   681  026D  3400               	retlw	0
   682  026E  3430               	retlw	48
   683  026F  3400               	retlw	0
   684  0270  3431               	retlw	49
   685  0271  3400               	retlw	0
   686  0272  3431               	retlw	49
   687  0273  3400               	retlw	0
   688  0274  3432               	retlw	50
   689  0275  3400               	retlw	0
   690  0276  3432               	retlw	50
   691  0277  3400               	retlw	0
   692  0278  3433               	retlw	51
   693  0279  3400               	retlw	0
   694  027A  3433               	retlw	51
   695  027B  3400               	retlw	0
   696  027C  3434               	retlw	52
   697  027D  3400               	retlw	0
   698  027E  3434               	retlw	52
   699  027F  3400               	retlw	0
   700  0280  3435               	retlw	53
   701  0281  3400               	retlw	0
   702  0282  3435               	retlw	53
   703  0283  3400               	retlw	0
   704  0284  3436               	retlw	54
   705  0285  3400               	retlw	0
   706  0286  3437               	retlw	55
   707  0287  3400               	retlw	0
   708  0288  3437               	retlw	55
   709  0289  3400               	retlw	0
   710  028A  3438               	retlw	56
   711  028B  3400               	retlw	0
   712  028C  3438               	retlw	56
   713  028D  3400               	retlw	0
   714  028E  3439               	retlw	57
   715  028F  3400               	retlw	0
   716  0290  343A               	retlw	58
   717  0291  3400               	retlw	0
   718  0292  343B               	retlw	59
   719  0293  3400               	retlw	0
   720  0294  343B               	retlw	59
   721  0295  3400               	retlw	0
   722  0296  343C               	retlw	60
   723  0297  3400               	retlw	0
   724  0298  343D               	retlw	61
   725  0299  3400               	retlw	0
   726  029A  343D               	retlw	61
   727  029B  3400               	retlw	0
   728  029C  343E               	retlw	62
   729  029D  3400               	retlw	0
   730  029E  343F               	retlw	63
   731  029F  3400               	retlw	0
   732  02A0  343F               	retlw	63
   733  02A1  3400               	retlw	0
   734  02A2  3440               	retlw	64
   735  02A3  3400               	retlw	0
   736  02A4  3441               	retlw	65
   737  02A5  3400               	retlw	0
   738  02A6  3442               	retlw	66
   739  02A7  3400               	retlw	0
   740  02A8  3442               	retlw	66
   741  02A9  3400               	retlw	0
   742  02AA  3443               	retlw	67
   743  02AB  3400               	retlw	0
   744  02AC  3444               	retlw	68
   745  02AD  3400               	retlw	0
   746  02AE  3445               	retlw	69
   747  02AF  3400               	retlw	0
   748  02B0  3446               	retlw	70
   749  02B1  3400               	retlw	0
   750  02B2  3447               	retlw	71
   751  02B3  3400               	retlw	0
   752  02B4  3448               	retlw	72
   753  02B5  3400               	retlw	0
   754  02B6  3449               	retlw	73
   755  02B7  3400               	retlw	0
   756  02B8  344A               	retlw	74
   757  02B9  3400               	retlw	0
   758  02BA  344A               	retlw	74
   759  02BB  3400               	retlw	0
   760  02BC  344B               	retlw	75
   761  02BD  3400               	retlw	0
   762  02BE  344C               	retlw	76
   763  02BF  3400               	retlw	0
   764  02C0  344D               	retlw	77
   765  02C1  3400               	retlw	0
   766  02C2  344F               	retlw	79
   767  02C3  3400               	retlw	0
   768  02C4  3450               	retlw	80
   769  02C5  3400               	retlw	0
   770  02C6  3451               	retlw	81
   771  02C7  3400               	retlw	0
   772  02C8  3452               	retlw	82
   773  02C9  3400               	retlw	0
   774  02CA  3453               	retlw	83
   775  02CB  3400               	retlw	0
   776  02CC  3454               	retlw	84
   777  02CD  3400               	retlw	0
   778  02CE  3456               	retlw	86
   779  02CF  3400               	retlw	0
   780  02D0  3457               	retlw	87
   781  02D1  3400               	retlw	0
   782  02D2  3458               	retlw	88
   783  02D3  3400               	retlw	0
   784  02D4  345A               	retlw	90
   785  02D5  3400               	retlw	0
   786  02D6  345B               	retlw	91
   787  02D7  3400               	retlw	0
   788  02D8  345C               	retlw	92
   789  02D9  3400               	retlw	0
   790  02DA  345E               	retlw	94
   791  02DB  3400               	retlw	0
   792  02DC  3460               	retlw	96
   793  02DD  3400               	retlw	0
   794  02DE  3461               	retlw	97
   795  02DF  3400               	retlw	0
   796  02E0  3463               	retlw	99
   797  02E1  3400               	retlw	0
   798  02E2  3465               	retlw	101
   799  02E3  3400               	retlw	0
   800  02E4  3467               	retlw	103
   801  02E5  3400               	retlw	0
   802  02E6  3469               	retlw	105
   803  02E7  3400               	retlw	0
   804  02E8  346A               	retlw	106
   805  02E9  3400               	retlw	0
   806  02EA  346D               	retlw	109
   807  02EB  3400               	retlw	0
   808  02EC  346E               	retlw	110
   809  02ED  3400               	retlw	0
   810  02EE  3471               	retlw	113
   811  02EF  3400               	retlw	0
   812  02F0  3473               	retlw	115
   813  02F1  3400               	retlw	0
   814  02F2  3476               	retlw	118
   815  02F3  3400               	retlw	0
   816  02F4  3478               	retlw	120
   817  02F5  3400               	retlw	0
   818  02F6  347B               	retlw	123
   819  02F7  3400               	retlw	0
   820  02F8  347E               	retlw	126
   821  02F9  3400               	retlw	0
   822  02FA  3483               	retlw	131
   823  02FB  3400               	retlw	0
   824  02FC  3486               	retlw	134
   825  02FD  3400               	retlw	0
   826  02FE  348C               	retlw	140
   827  02FF  3400               	retlw	0
   828  0300  3490               	retlw	144
   829  0301  3400               	retlw	0
   830  0302  3493               	retlw	147
   831  0303  3400               	retlw	0
   832  0304  3494               	retlw	148
   833  0305  3400               	retlw	0
   834  0306  3495               	retlw	149
   835  0307  3400               	retlw	0
   836  0308  3496               	retlw	150
   837  0309  3400               	retlw	0
   838  030A  3496               	retlw	150
   839  030B  3400               	retlw	0
   840  030C  3496               	retlw	150
   841  030D  3400               	retlw	0
   842  030E  3496               	retlw	150
   843  030F  3400               	retlw	0
   844  0310  3496               	retlw	150
   845  0311  3400               	retlw	0
   846  0312                     __end_of_fkTempTab:	
   847  0312                     _tkTempTab:	
   848  0312  34D7               	retlw	215
   849  0313  34FF               	retlw	255
   850  0314  34D7               	retlw	215
   851  0315  34FF               	retlw	255
   852  0316  34D8               	retlw	216
   853  0317  34FF               	retlw	255
   854  0318  34E0               	retlw	224
   855  0319  34FF               	retlw	255
   856  031A  34E6               	retlw	230
   857  031B  34FF               	retlw	255
   858  031C  34EA               	retlw	234
   859  031D  34FF               	retlw	255
   860  031E  34EE               	retlw	238
   861  031F  34FF               	retlw	255
   862  0320  34F1               	retlw	241
   863  0321  34FF               	retlw	255
   864  0322  34F3               	retlw	243
   865  0323  34FF               	retlw	255
   866  0324  34F6               	retlw	246
   867  0325  34FF               	retlw	255
   868  0326  34F8               	retlw	248
   869  0327  34FF               	retlw	255
   870  0328  34FA               	retlw	250
   871  0329  34FF               	retlw	255
   872  032A  34FB               	retlw	251
   873  032B  34FF               	retlw	255
   874  032C  34FD               	retlw	253
   875  032D  34FF               	retlw	255
   876  032E  34FF               	retlw	255
   877  032F  34FF               	retlw	255
   878  0330  3400               	retlw	0
   879  0331  3400               	retlw	0
   880  0332  3402               	retlw	2
   881  0333  3400               	retlw	0
   882  0334  3403               	retlw	3
   883  0335  3400               	retlw	0
   884  0336  3404               	retlw	4
   885  0337  3400               	retlw	0
   886  0338  3405               	retlw	5
   887  0339  3400               	retlw	0
   888  033A  3406               	retlw	6
   889  033B  3400               	retlw	0
   890  033C  3408               	retlw	8
   891  033D  3400               	retlw	0
   892  033E  3409               	retlw	9
   893  033F  3400               	retlw	0
   894  0340  340A               	retlw	10
   895  0341  3400               	retlw	0
   896  0342  340B               	retlw	11
   897  0343  3400               	retlw	0
   898  0344  340C               	retlw	12
   899  0345  3400               	retlw	0
   900  0346  340D               	retlw	13
   901  0347  3400               	retlw	0
   902  0348  340D               	retlw	13
   903  0349  3400               	retlw	0
   904  034A  340E               	retlw	14
   905  034B  3400               	retlw	0
   906  034C  340F               	retlw	15
   907  034D  3400               	retlw	0
   908  034E  3410               	retlw	16
   909  034F  3400               	retlw	0
   910  0350  3411               	retlw	17
   911  0351  3400               	retlw	0
   912  0352  3411               	retlw	17
   913  0353  3400               	retlw	0
   914  0354  3412               	retlw	18
   915  0355  3400               	retlw	0
   916  0356  3413               	retlw	19
   917  0357  3400               	retlw	0
   918  0358  3414               	retlw	20
   919  0359  3400               	retlw	0
   920  035A  3414               	retlw	20
   921  035B  3400               	retlw	0
   922  035C  3415               	retlw	21
   923  035D  3400               	retlw	0
   924  035E  3416               	retlw	22
   925  035F  3400               	retlw	0
   926  0360  3417               	retlw	23
   927  0361  3400               	retlw	0
   928  0362  3417               	retlw	23
   929  0363  3400               	retlw	0
   930  0364  3418               	retlw	24
   931  0365  3400               	retlw	0
   932  0366  3419               	retlw	25
   933  0367  3400               	retlw	0
   934  0368  3419               	retlw	25
   935  0369  3400               	retlw	0
   936  036A  341A               	retlw	26
   937  036B  3400               	retlw	0
   938  036C  341A               	retlw	26
   939  036D  3400               	retlw	0
   940  036E  341B               	retlw	27
   941  036F  3400               	retlw	0
   942  0370  341C               	retlw	28
   943  0371  3400               	retlw	0
   944  0372  341C               	retlw	28
   945  0373  3400               	retlw	0
   946  0374  341D               	retlw	29
   947  0375  3400               	retlw	0
   948  0376  341D               	retlw	29
   949  0377  3400               	retlw	0
   950  0378  341E               	retlw	30
   951  0379  3400               	retlw	0
   952  037A  341F               	retlw	31
   953  037B  3400               	retlw	0
   954  037C  341F               	retlw	31
   955  037D  3400               	retlw	0
   956  037E  3420               	retlw	32
   957  037F  3400               	retlw	0
   958  0380  3420               	retlw	32
   959  0381  3400               	retlw	0
   960  0382  3421               	retlw	33
   961  0383  3400               	retlw	0
   962  0384  3421               	retlw	33
   963  0385  3400               	retlw	0
   964  0386  3422               	retlw	34
   965  0387  3400               	retlw	0
   966  0388  3422               	retlw	34
   967  0389  3400               	retlw	0
   968  038A  3423               	retlw	35
   969  038B  3400               	retlw	0
   970  038C  3423               	retlw	35
   971  038D  3400               	retlw	0
   972  038E  3424               	retlw	36
   973  038F  3400               	retlw	0
   974  0390  3424               	retlw	36
   975  0391  3400               	retlw	0
   976  0392  3425               	retlw	37
   977  0393  3400               	retlw	0
   978  0394  3425               	retlw	37
   979  0395  3400               	retlw	0
   980  0396  3426               	retlw	38
   981  0397  3400               	retlw	0
   982  0398  3426               	retlw	38
   983  0399  3400               	retlw	0
   984  039A  3427               	retlw	39
   985  039B  3400               	retlw	0
   986  039C  3427               	retlw	39
   987  039D  3400               	retlw	0
   988  039E  3428               	retlw	40
   989  039F  3400               	retlw	0
   990  03A0  3428               	retlw	40
   991  03A1  3400               	retlw	0
   992  03A2  3429               	retlw	41
   993  03A3  3400               	retlw	0
   994  03A4  3429               	retlw	41
   995  03A5  3400               	retlw	0
   996  03A6  342A               	retlw	42
   997  03A7  3400               	retlw	0
   998  03A8  342A               	retlw	42
   999  03A9  3400               	retlw	0
  1000  03AA  342B               	retlw	43
  1001  03AB  3400               	retlw	0
  1002  03AC  342B               	retlw	43
  1003  03AD  3400               	retlw	0
  1004  03AE  342C               	retlw	44
  1005  03AF  3400               	retlw	0
  1006  03B0  342C               	retlw	44
  1007  03B1  3400               	retlw	0
  1008  03B2  342D               	retlw	45
  1009  03B3  3400               	retlw	0
  1010  03B4  342D               	retlw	45
  1011  03B5  3400               	retlw	0
  1012  03B6  342E               	retlw	46
  1013  03B7  3400               	retlw	0
  1014  03B8  342E               	retlw	46
  1015  03B9  3400               	retlw	0
  1016  03BA  342E               	retlw	46
  1017  03BB  3400               	retlw	0
  1018  03BC  342F               	retlw	47
  1019  03BD  3400               	retlw	0
  1020  03BE  342F               	retlw	47
  1021  03BF  3400               	retlw	0
  1022  03C0  3430               	retlw	48
  1023  03C1  3400               	retlw	0
  1024  03C2  3430               	retlw	48
  1025  03C3  3400               	retlw	0
  1026  03C4  3431               	retlw	49
  1027  03C5  3400               	retlw	0
  1028  03C6  3431               	retlw	49
  1029  03C7  3400               	retlw	0
  1030  03C8  3432               	retlw	50
  1031  03C9  3400               	retlw	0
  1032  03CA  3432               	retlw	50
  1033  03CB  3400               	retlw	0
  1034  03CC  3432               	retlw	50
  1035  03CD  3400               	retlw	0
  1036  03CE  3433               	retlw	51
  1037  03CF  3400               	retlw	0
  1038  03D0  3433               	retlw	51
  1039  03D1  3400               	retlw	0
  1040  03D2  3434               	retlw	52
  1041  03D3  3400               	retlw	0
  1042  03D4  3434               	retlw	52
  1043  03D5  3400               	retlw	0
  1044  03D6  3435               	retlw	53
  1045  03D7  3400               	retlw	0
  1046  03D8  3435               	retlw	53
  1047  03D9  3400               	retlw	0
  1048  03DA  3436               	retlw	54
  1049  03DB  3400               	retlw	0
  1050  03DC  3436               	retlw	54
  1051  03DD  3400               	retlw	0
  1052  03DE  3436               	retlw	54
  1053  03DF  3400               	retlw	0
  1054  03E0  3437               	retlw	55
  1055  03E1  3400               	retlw	0
  1056  03E2  3437               	retlw	55
  1057  03E3  3400               	retlw	0
  1058  03E4  3438               	retlw	56
  1059  03E5  3400               	retlw	0
  1060  03E6  3438               	retlw	56
  1061  03E7  3400               	retlw	0
  1062  03E8  3439               	retlw	57
  1063  03E9  3400               	retlw	0
  1064  03EA  3439               	retlw	57
  1065  03EB  3400               	retlw	0
  1066  03EC  3439               	retlw	57
  1067  03ED  3400               	retlw	0
  1068  03EE  343A               	retlw	58
  1069  03EF  3400               	retlw	0
  1070  03F0  343A               	retlw	58
  1071  03F1  3400               	retlw	0
  1072  03F2  343B               	retlw	59
  1073  03F3  3400               	retlw	0
  1074  03F4  343B               	retlw	59
  1075  03F5  3400               	retlw	0
  1076  03F6  343C               	retlw	60
  1077  03F7  3400               	retlw	0
  1078  03F8  343C               	retlw	60
  1079  03F9  3400               	retlw	0
  1080  03FA  343D               	retlw	61
  1081  03FB  3400               	retlw	0
  1082  03FC  343D               	retlw	61
  1083  03FD  3400               	retlw	0
  1084  03FE  343D               	retlw	61
  1085  03FF  3400               	retlw	0
  1086  0400  343E               	retlw	62
  1087  0401  3400               	retlw	0
  1088  0402  343E               	retlw	62
  1089  0403  3400               	retlw	0
  1090  0404  343F               	retlw	63
  1091  0405  3400               	retlw	0
  1092  0406  343F               	retlw	63
  1093  0407  3400               	retlw	0
  1094  0408  3440               	retlw	64
  1095  0409  3400               	retlw	0
  1096  040A  3440               	retlw	64
  1097  040B  3400               	retlw	0
  1098  040C  3440               	retlw	64
  1099  040D  3400               	retlw	0
  1100  040E  3441               	retlw	65
  1101  040F  3400               	retlw	0
  1102  0410  3441               	retlw	65
  1103  0411  3400               	retlw	0
  1104  0412  3442               	retlw	66
  1105  0413  3400               	retlw	0
  1106  0414  3442               	retlw	66
  1107  0415  3400               	retlw	0
  1108  0416  3443               	retlw	67
  1109  0417  3400               	retlw	0
  1110  0418  3443               	retlw	67
  1111  0419  3400               	retlw	0
  1112  041A  3444               	retlw	68
  1113  041B  3400               	retlw	0
  1114  041C  3444               	retlw	68
  1115  041D  3400               	retlw	0
  1116  041E  3444               	retlw	68
  1117  041F  3400               	retlw	0
  1118  0420  3445               	retlw	69
  1119  0421  3400               	retlw	0
  1120  0422  3445               	retlw	69
  1121  0423  3400               	retlw	0
  1122  0424  3446               	retlw	70
  1123  0425  3400               	retlw	0
  1124  0426  3446               	retlw	70
  1125  0427  3400               	retlw	0
  1126  0428  3447               	retlw	71
  1127  0429  3400               	retlw	0
  1128  042A  3447               	retlw	71
  1129  042B  3400               	retlw	0
  1130  042C  3448               	retlw	72
  1131  042D  3400               	retlw	0
  1132  042E  3448               	retlw	72
  1133  042F  3400               	retlw	0
  1134  0430  3449               	retlw	73
  1135  0431  3400               	retlw	0
  1136  0432  3449               	retlw	73
  1137  0433  3400               	retlw	0
  1138  0434  344A               	retlw	74
  1139  0435  3400               	retlw	0
  1140  0436  344A               	retlw	74
  1141  0437  3400               	retlw	0
  1142  0438  344B               	retlw	75
  1143  0439  3400               	retlw	0
  1144  043A  344B               	retlw	75
  1145  043B  3400               	retlw	0
  1146  043C  344B               	retlw	75
  1147  043D  3400               	retlw	0
  1148  043E  344C               	retlw	76
  1149  043F  3400               	retlw	0
  1150  0440  344C               	retlw	76
  1151  0441  3400               	retlw	0
  1152  0442  344D               	retlw	77
  1153  0443  3400               	retlw	0
  1154  0444  344D               	retlw	77
  1155  0445  3400               	retlw	0
  1156  0446  344E               	retlw	78
  1157  0447  3400               	retlw	0
  1158  0448  344E               	retlw	78
  1159  0449  3400               	retlw	0
  1160  044A  344F               	retlw	79
  1161  044B  3400               	retlw	0
  1162  044C  344F               	retlw	79
  1163  044D  3400               	retlw	0
  1164  044E  3450               	retlw	80
  1165  044F  3400               	retlw	0
  1166  0450  3450               	retlw	80
  1167  0451  3400               	retlw	0
  1168  0452  3451               	retlw	81
  1169  0453  3400               	retlw	0
  1170  0454  3451               	retlw	81
  1171  0455  3400               	retlw	0
  1172  0456  3452               	retlw	82
  1173  0457  3400               	retlw	0
  1174  0458  3452               	retlw	82
  1175  0459  3400               	retlw	0
  1176  045A  3453               	retlw	83
  1177  045B  3400               	retlw	0
  1178  045C  3454               	retlw	84
  1179  045D  3400               	retlw	0
  1180  045E  3454               	retlw	84
  1181  045F  3400               	retlw	0
  1182  0460  3455               	retlw	85
  1183  0461  3400               	retlw	0
  1184  0462  3455               	retlw	85
  1185  0463  3400               	retlw	0
  1186  0464  3456               	retlw	86
  1187  0465  3400               	retlw	0
  1188  0466  3456               	retlw	86
  1189  0467  3400               	retlw	0
  1190  0468  3457               	retlw	87
  1191  0469  3400               	retlw	0
  1192  046A  3457               	retlw	87
  1193  046B  3400               	retlw	0
  1194  046C  3458               	retlw	88
  1195  046D  3400               	retlw	0
  1196  046E  3458               	retlw	88
  1197  046F  3400               	retlw	0
  1198  0470  3459               	retlw	89
  1199  0471  3400               	retlw	0
  1200  0472  345A               	retlw	90
  1201  0473  3400               	retlw	0
  1202  0474  345A               	retlw	90
  1203  0475  3400               	retlw	0
  1204  0476  345B               	retlw	91
  1205  0477  3400               	retlw	0
  1206  0478  345B               	retlw	91
  1207  0479  3400               	retlw	0
  1208  047A  345C               	retlw	92
  1209  047B  3400               	retlw	0
  1210  047C  345D               	retlw	93
  1211  047D  3400               	retlw	0
  1212  047E  345D               	retlw	93
  1213  047F  3400               	retlw	0
  1214  0480  345E               	retlw	94
  1215  0481  3400               	retlw	0
  1216  0482  345E               	retlw	94
  1217  0483  3400               	retlw	0
  1218  0484  345F               	retlw	95
  1219  0485  3400               	retlw	0
  1220  0486  3460               	retlw	96
  1221  0487  3400               	retlw	0
  1222  0488  3460               	retlw	96
  1223  0489  3400               	retlw	0
  1224  048A  3461               	retlw	97
  1225  048B  3400               	retlw	0
  1226  048C  3462               	retlw	98
  1227  048D  3400               	retlw	0
  1228  048E  3462               	retlw	98
  1229  048F  3400               	retlw	0
  1230  0490  3463               	retlw	99
  1231  0491  3400               	retlw	0
  1232  0492  3464               	retlw	100
  1233  0493  3400               	retlw	0
  1234  0494  3465               	retlw	101
  1235  0495  3400               	retlw	0
  1236  0496  3465               	retlw	101
  1237  0497  3400               	retlw	0
  1238  0498  3466               	retlw	102
  1239  0499  3400               	retlw	0
  1240  049A  3467               	retlw	103
  1241  049B  3400               	retlw	0
  1242  049C  3467               	retlw	103
  1243  049D  3400               	retlw	0
  1244  049E  3468               	retlw	104
  1245  049F  3400               	retlw	0
  1246  04A0  3469               	retlw	105
  1247  04A1  3400               	retlw	0
  1248  04A2  346A               	retlw	106
  1249  04A3  3400               	retlw	0
  1250  04A4  346B               	retlw	107
  1251  04A5  3400               	retlw	0
  1252  04A6  346B               	retlw	107
  1253  04A7  3400               	retlw	0
  1254  04A8  346C               	retlw	108
  1255  04A9  3400               	retlw	0
  1256  04AA  346D               	retlw	109
  1257  04AB  3400               	retlw	0
  1258  04AC  346E               	retlw	110
  1259  04AD  3400               	retlw	0
  1260  04AE  346F               	retlw	111
  1261  04AF  3400               	retlw	0
  1262  04B0  3470               	retlw	112
  1263  04B1  3400               	retlw	0
  1264  04B2  3471               	retlw	113
  1265  04B3  3400               	retlw	0
  1266  04B4  3472               	retlw	114
  1267  04B5  3400               	retlw	0
  1268  04B6  3472               	retlw	114
  1269  04B7  3400               	retlw	0
  1270  04B8  3473               	retlw	115
  1271  04B9  3400               	retlw	0
  1272  04BA  3474               	retlw	116
  1273  04BB  3400               	retlw	0
  1274  04BC  3475               	retlw	117
  1275  04BD  3400               	retlw	0
  1276  04BE  3476               	retlw	118
  1277  04BF  3400               	retlw	0
  1278  04C0  3478               	retlw	120
  1279  04C1  3400               	retlw	0
  1280  04C2  3479               	retlw	121
  1281  04C3  3400               	retlw	0
  1282  04C4  347A               	retlw	122
  1283  04C5  3400               	retlw	0
  1284  04C6  347B               	retlw	123
  1285  04C7  3400               	retlw	0
  1286  04C8  347C               	retlw	124
  1287  04C9  3400               	retlw	0
  1288  04CA  347D               	retlw	125
  1289  04CB  3400               	retlw	0
  1290  04CC  347E               	retlw	126
  1291  04CD  3400               	retlw	0
  1292  04CE  3480               	retlw	128
  1293  04CF  3400               	retlw	0
  1294  04D0  3481               	retlw	129
  1295  04D1  3400               	retlw	0
  1296  04D2  3482               	retlw	130
  1297  04D3  3400               	retlw	0
  1298  04D4  3484               	retlw	132
  1299  04D5  3400               	retlw	0
  1300  04D6  3485               	retlw	133
  1301  04D7  3400               	retlw	0
  1302  04D8  3487               	retlw	135
  1303  04D9  3400               	retlw	0
  1304  04DA  3488               	retlw	136
  1305  04DB  3400               	retlw	0
  1306  04DC  348A               	retlw	138
  1307  04DD  3400               	retlw	0
  1308  04DE  348B               	retlw	139
  1309  04DF  3400               	retlw	0
  1310  04E0  348D               	retlw	141
  1311  04E1  3400               	retlw	0
  1312  04E2  348F               	retlw	143
  1313  04E3  3400               	retlw	0
  1314  04E4  3491               	retlw	145
  1315  04E5  3400               	retlw	0
  1316  04E6  3493               	retlw	147
  1317  04E7  3400               	retlw	0
  1318  04E8  3495               	retlw	149
  1319  04E9  3400               	retlw	0
  1320  04EA  3495               	retlw	149
  1321  04EB  3400               	retlw	0
  1322  04EC  3495               	retlw	149
  1323  04ED  3400               	retlw	0
  1324  04EE  3495               	retlw	149
  1325  04EF  3400               	retlw	0
  1326  04F0  3495               	retlw	149
  1327  04F1  3400               	retlw	0
  1328  04F2  3495               	retlw	149
  1329  04F3  3400               	retlw	0
  1330  04F4  3495               	retlw	149
  1331  04F5  3400               	retlw	0
  1332  04F6  3495               	retlw	149
  1333  04F7  3400               	retlw	0
  1334  04F8  3495               	retlw	149
  1335  04F9  3400               	retlw	0
  1336  04FA  3495               	retlw	149
  1337  04FB  3400               	retlw	0
  1338  04FC  3495               	retlw	149
  1339  04FD  3400               	retlw	0
  1340  04FE  3495               	retlw	149
  1341  04FF  3400               	retlw	0
  1342  0500  3495               	retlw	149
  1343  0501  3400               	retlw	0
  1344  0502  3495               	retlw	149
  1345  0503  3400               	retlw	0
  1346  0504                     __end_of_tkTempTab:	
  1347  0504                     _STEP:	
  1348  0504  3408               	retlw	8
  1349  0505  3400               	retlw	0
  1350  0506  340C               	retlw	12
  1351  0507  3400               	retlw	0
  1352  0508  3404               	retlw	4
  1353  0509  3400               	retlw	0
  1354  050A  3406               	retlw	6
  1355  050B  3400               	retlw	0
  1356  050C  3402               	retlw	2
  1357  050D  3400               	retlw	0
  1358  050E  3403               	retlw	3
  1359  050F  3400               	retlw	0
  1360  0510  3401               	retlw	1
  1361  0511  3400               	retlw	0
  1362  0512  3409               	retlw	9
  1363  0513  3400               	retlw	0
  1364  0514                     __end_of_STEP:	
  1365  001F                     _ADCON0	set	31
  1366  001F                     _ADCON0bits	set	31
  1367  001E                     _ADRES	set	30
  1368  0006                     _PORTB	set	6
  1369  0007                     _PORTCBIT	set	7
  1370  0018                     _RCSTA	set	24
  1371  0001                     _TMR0	set	1
  1372  0019                     _TXREG	set	25
  1373  00F8                     _ADON	set	248
  1374  005F                     _GIE	set	95
  1375  00FA                     _GO	set	250
  1376  005C                     _INTE	set	92
  1377  005E                     _PEIE	set	94
  1378  0030                     _RB0	set	48
  1379  0031                     _RB1	set	49
  1380  0032                     _RB2	set	50
  1381  0034                     _RB4	set	52
  1382  0035                     _RB5	set	53
  1383  0036                     _RB6	set	54
  1384  0037                     _RB7	set	55
  1385  005B                     _RBIE	set	91
  1386  003C                     _RC4	set	60
  1387  005D                     _T0IE	set	93
  1388  005A                     _T0IF	set	90
  1389  005A                     _TMR0IF	set	90
  1390  009F                     _ADCON1	set	159
  1391  0099                     _SPBRG	set	153
  1392  0085                     _TRISA	set	133
  1393  0086                     _TRISB	set	134
  1394  0087                     _TRISC	set	135
  1395  0098                     _TXSTA	set	152
  1396  040B                     _PSA	set	1035
  1397  0465                     _RCIE	set	1125
  1398  040D                     _T0CS	set	1037
  1399  04C1                     _TRMT	set	1217
  1400  040F                     _nRBPU	set	1039
  1401                           
  1402                           ; #config settings
  1403  0000                     
  1404                           	psect	cinit
  1405  0013                     start_initialization:	
  1406  0013                     __initialization:	
  1407                           
  1408                           ; Clear objects allocated to BANK0
  1409  0013  1383               	bcf	3,7	;select IRP bank0
  1410  0014  3020               	movlw	low __pbssBANK0
  1411  0015  0084               	movwf	4
  1412  0016  304B               	movlw	low (__pbssBANK0+43)
  1413  0017  158A  251D  118A   	fcall	clear_ram0
  1414                           
  1415                           ; Initialize objects allocated to BANK0
  1416  001A  158A  2512  118A   	fcall	__pidataBANK0	;fetch initializer
  1417  001D  00DF               	movwf	__pdataBANK0& (0+127)
  1418  001E  158A  2513  118A   	fcall	__pidataBANK0+1	;fetch initializer
  1419  0021  00E0               	movwf	(__pdataBANK0+1)& (0+127)
  1420  0022  158A  2514  118A   	fcall	__pidataBANK0+2	;fetch initializer
  1421  0025  00E1               	movwf	(__pdataBANK0+2)& (0+127)
  1422  0026  158A  2515  118A   	fcall	__pidataBANK0+3	;fetch initializer
  1423  0029  00E2               	movwf	(__pdataBANK0+3)& (0+127)
  1424  002A  158A  2516         	fcall	__pidataBANK0+4	;fetch initializer
  1425  002C  00E3               	movwf	(__pdataBANK0+4)& (0+127)
  1426  002D                     end_of_initialization:	
  1427                           ;End of C runtime variable initialization code
  1428                           
  1429  002D                     __end_of__initialization:	
  1430  002D  0183               	clrf	3
  1431  002E  158A  2DAF         	ljmp	_main	;jump to C main() function
  1432                           
  1433                           	psect	bssBANK0
  1434  0020                     __pbssBANK0:	
  1435  0020                     _T:	
  1436  0020                     	ds	16
  1437  0030                     _TM:	
  1438  0030                     	ds	9
  1439  0039                     _Judge:	
  1440  0039                     	ds	2
  1441  003B                     _SysErr:	
  1442  003B                     	ds	2
  1443  003D                     _adcc:	
  1444  003D                     	ds	2
  1445  003F                     _ee:	
  1446  003F                     	ds	2
  1447  0041                     _ff:	
  1448  0041                     	ds	2
  1449  0043                     _stepcount:	
  1450  0043                     	ds	2
  1451  0045                     _t1:	
  1452  0045                     	ds	2
  1453  0047                     _t2:	
  1454  0047                     	ds	2
  1455  0049                     _RelayS:	
  1456  0049                     	ds	1
  1457  004A                     _temp1:	
  1458  004A                     	ds	1
  1459                           
  1460                           	psect	dataBANK0
  1461  005F                     __pdataBANK0:	
  1462  005F                     _EEVSTEP:	
  1463  005F                     	ds	2
  1464  0061                     _Clock:	
  1465  0061                     	ds	1
  1466  0062                     _InterTimes:	
  1467  0062                     	ds	1
  1468  0063                     _Minutes:	
  1469  0063                     	ds	1
  1470                           
  1471                           	psect	clrtext
  1472  0D1D                     clear_ram0:	
  1473                           ;	Called with FSR containing the base address, and
  1474                           ;	W with the last address+1
  1475                           
  1476  0D1D  0064               	clrwdt	;clear the watchdog before getting into this loop
  1477  0D1E                     clrloop0:	
  1478  0D1E  0180               	clrf	0	;clear RAM location pointed to by FSR
  1479  0D1F  0A84               	incf	4,f	;increment pointer
  1480  0D20  0604               	xorwf	4,w	;XOR with final address
  1481  0D21  1903               	btfsc	3,2	;have we reached the end yet?
  1482  0D22  3400               	retlw	0	;all done for this memory range, return
  1483  0D23  0604               	xorwf	4,w	;XOR again to restore value
  1484  0D24  2D1E               	goto	clrloop0	;do the next byte
  1485                           
  1486                           	psect	cstackCOMMON
  1487  0000                     __pcstackCOMMON:	
  1488  0000                     ??_UART_SendByte:	
  1489  0000                     ??_delay2ms:	
  1490                           ; 1 bytes @ 0x0
  1491                           
  1492  0000                     ??_HPShut:	
  1493                           ; 1 bytes @ 0x0
  1494                           
  1495  0000                     ??_DriveRelay:	
  1496                           ; 1 bytes @ 0x0
  1497                           
  1498  0000                     ??_HPSystem:	
  1499                           ; 1 bytes @ 0x0
  1500                           
  1501  0000                     ??_timer0_init:	
  1502                           ; 1 bytes @ 0x0
  1503                           
  1504  0000                     ??_serial_init:	
  1505                           ; 1 bytes @ 0x0
  1506                           
  1507  0000                     ??_main:	
  1508                           ; 1 bytes @ 0x0
  1509                           
  1510                           
  1511                           	psect	cstackBANK0
  1512  004B                     __pcstackBANK0:	
  1513                           ; 1 bytes @ 0x0
  1514                           
  1515  004B                     ?_UART_SendByte:	
  1516  004B                     ?_DriveEEV:	
  1517                           ; 1 bytes @ 0x0
  1518                           
  1519  004B                     ?_HPShut:	
  1520                           ; 1 bytes @ 0x0
  1521                           
  1522  004B                     ?_TEMPADC:	
  1523                           ; 1 bytes @ 0x0
  1524                           
  1525  004B                     ?_DriveRelay:	
  1526                           ; 1 bytes @ 0x0
  1527                           
  1528  004B                     ?_CountClk:	
  1529                           ; 1 bytes @ 0x0
  1530                           
  1531  004B                     ?_CountMin:	
  1532                           ; 1 bytes @ 0x0
  1533                           
  1534  004B                     ?_DriveTime:	
  1535                           ; 1 bytes @ 0x0
  1536                           
  1537  004B                     ?_HPstart:	
  1538                           ; 1 bytes @ 0x0
  1539                           
  1540  004B                     ?_HPOuUnit:	
  1541                           ; 1 bytes @ 0x0
  1542                           
  1543  004B                     ?_HPSystem:	
  1544                           ; 1 bytes @ 0x0
  1545                           
  1546  004B                     ?_eevinit:	
  1547                           ; 1 bytes @ 0x0
  1548                           
  1549  004B                     ?_timer0_init:	
  1550                           ; 1 bytes @ 0x0
  1551                           
  1552  004B                     ?_ISR:	
  1553                           ; 1 bytes @ 0x0
  1554                           
  1555  004B                     ??_ISR:	
  1556                           ; 1 bytes @ 0x0
  1557                           
  1558  004B                     ?_serial_init:	
  1559                           ; 1 bytes @ 0x0
  1560                           
  1561  004B                     ?_main:	
  1562                           ; 1 bytes @ 0x0
  1563                           
  1564                           
  1565                           ; 2 bytes @ 0x0
  1566  004B                     	ds	5
  1567  0050                     ?_delay2ms:	
  1568  0050                     ??_CountClk:	
  1569                           ; 1 bytes @ 0x5
  1570                           
  1571  0050                     ??_CountMin:	
  1572                           ; 1 bytes @ 0x5
  1573                           
  1574  0050                     ?_eevdriver:	
  1575                           ; 1 bytes @ 0x5
  1576                           
  1577  0050                     ?_abs:	
  1578                           ; 1 bytes @ 0x5
  1579                           
  1580  0050                     UART_SendByte@dat:	
  1581                           ; 2 bytes @ 0x5
  1582                           
  1583  0050                     eevdriver@x:	
  1584                           ; 1 bytes @ 0x5
  1585                           
  1586  0050                     delay2ms@x:	
  1587                           ; 2 bytes @ 0x5
  1588                           
  1589  0050                     abs@a:	
  1590                           ; 2 bytes @ 0x5
  1591                           
  1592                           
  1593                           ; 2 bytes @ 0x5
  1594  0050                     	ds	1
  1595  0051                     ??_HPOuUnit:	
  1596                           
  1597                           ; 1 bytes @ 0x6
  1598  0051                     	ds	1
  1599  0052                     ??_abs:	
  1600  0052                     ??_eevdriver:	
  1601                           ; 1 bytes @ 0x7
  1602                           
  1603  0052                     delay2ms@a:	
  1604                           ; 1 bytes @ 0x7
  1605                           
  1606                           
  1607                           ; 2 bytes @ 0x7
  1608  0052                     	ds	2
  1609  0054                     delay2ms@b:	
  1610                           
  1611                           ; 2 bytes @ 0x9
  1612  0054                     	ds	1
  1613  0055                     eevdriver@stepx:	
  1614                           
  1615                           ; 2 bytes @ 0xA
  1616  0055                     	ds	1
  1617  0056                     ??_HPstart:	
  1618  0056                     ?_ADC:	
  1619                           ; 1 bytes @ 0xB
  1620                           
  1621  0056                     ADC@x:	
  1622                           ; 1 bytes @ 0xB
  1623                           
  1624                           
  1625                           ; 2 bytes @ 0xB
  1626  0056                     	ds	1
  1627  0057                     ??_DriveEEV:	
  1628  0057                     ??_eevinit:	
  1629                           ; 1 bytes @ 0xC
  1630                           
  1631                           
  1632                           ; 1 bytes @ 0xC
  1633  0057                     	ds	1
  1634  0058                     ??_ADC:	
  1635                           
  1636                           ; 1 bytes @ 0xD
  1637  0058                     	ds	1
  1638  0059                     ??_TEMPADC:	
  1639  0059                     DriveEEV@x:	
  1640                           ; 1 bytes @ 0xE
  1641                           
  1642                           
  1643                           ; 2 bytes @ 0xE
  1644  0059                     	ds	2
  1645  005B                     ??_DriveTime:	
  1646                           
  1647                           ; 1 bytes @ 0x10
  1648  005B                     	ds	1
  1649  005C                     DriveTime@i:	
  1650  005C                     eevinit@i:	
  1651                           ; 2 bytes @ 0x11
  1652                           
  1653                           
  1654                           ; 2 bytes @ 0x11
  1655  005C                     	ds	2
  1656  005E                     TEMPADC@uwAdcSample:	
  1657                           
  1658                           ; 1 bytes @ 0x13
  1659  005E                     	ds	1
  1660                           
  1661                           	psect	maintext
  1662  0DAF                     __pmaintext:	
  1663 ;;
  1664 ;;Main: autosize = 0, tempsize = 0, incstack = 0, save=0
  1665 ;;
  1666 ;; *************** function _main *****************
  1667 ;; Defined at:
  1668 ;;		line 140 in file "main.c"
  1669 ;; Parameters:    Size  Location     Type
  1670 ;;		None
  1671 ;; Auto vars:     Size  Location     Type
  1672 ;;		None
  1673 ;; Return value:  Size  Location     Type
  1674 ;;                  2  383[None  ] int 
  1675 ;; Registers used:
  1676 ;;		wreg, fsr0l, fsr0h, status,2, status,0, btemp+1, pclath, cstack
  1677 ;; Tracked objects:
  1678 ;;		On entry : B00/0
  1679 ;;		On exit  : 0/0
  1680 ;;		Unchanged: 0/0
  1681 ;; Data sizes:     COMMON   BANK0   BANK1
  1682 ;;      Params:         0       0       0
  1683 ;;      Locals:         0       0       0
  1684 ;;      Temps:          0       0       0
  1685 ;;      Totals:         0       0       0
  1686 ;;Total ram usage:        0 bytes
  1687 ;; Hardware stack levels required when called:    5
  1688 ;; This function calls:
  1689 ;;		_DriveRelay
  1690 ;;		_DriveTime
  1691 ;;		_HPSystem
  1692 ;;		_TEMPADC
  1693 ;;		_eevinit
  1694 ;;		_serial_init
  1695 ;;		_timer0_init
  1696 ;; This function is called by:
  1697 ;;		Startup code after reset
  1698 ;; This function uses a non-reentrant model
  1699 ;;
  1700                           
  1701                           
  1702                           ;psect for function _main
  1703  0DAF                     _main:	
  1704                           
  1705                           ;main.c: 142: PORTB=0x00;
  1706                           
  1707                           ;incstack = 0
  1708                           ; Regs used in _main: [wreg-fsr0h+status,2+status,0+btemp+1+pclath+cstack]
  1709  0DAF  1283               	bcf	3,5	;RP0=0, select bank0
  1710  0DB0  1303               	bcf	3,6	;RP1=0, select bank0
  1711  0DB1  0186               	clrf	6	;volatile
  1712                           
  1713                           ;main.c: 144: timer0_init();
  1714  0DB2  118A  20F2  158A   	fcall	_timer0_init
  1715                           
  1716                           ;main.c: 145: serial_init();
  1717  0DB5  118A  27EC  158A   	fcall	_serial_init
  1718                           
  1719                           ;main.c: 147: nRBPU =1;
  1720  0DB8  1683               	bsf	3,5	;RP0=1, select bank1
  1721  0DB9  1303               	bcf	3,6	;RP1=0, select bank1
  1722  0DBA  1781               	bsf	1,7	;volatile
  1723                           
  1724                           ;main.c: 148: TRISA = 0x2f;
  1725  0DBB  302F               	movlw	47
  1726  0DBC  0085               	movwf	5	;volatile
  1727                           
  1728                           ;main.c: 149: TRISB = 0x07;
  1729  0DBD  3007               	movlw	7
  1730  0DBE  0086               	movwf	6	;volatile
  1731                           
  1732                           ;main.c: 150: TRISC = 0x80;
  1733  0DBF  3080               	movlw	128
  1734  0DC0  0087               	movwf	7	;volatile
  1735                           
  1736                           ;main.c: 151: RC4=1;
  1737  0DC1  1283               	bcf	3,5	;RP0=0, select bank0
  1738  0DC2  1303               	bcf	3,6	;RP1=0, select bank0
  1739  0DC3  1607               	bsf	7,4	;volatile
  1740                           
  1741                           ;main.c: 152: INTE=0;
  1742  0DC4  120B               	bcf	11,4	;volatile
  1743                           
  1744                           ;main.c: 153: RBIE=0;
  1745  0DC5  118B               	bcf	11,3	;volatile
  1746                           
  1747                           ;main.c: 155: eevinit();
  1748  0DC6  118A  2514  158A   	fcall	_eevinit
  1749  0DC9                     l1834:	
  1750                           ;main.c: 159: while(1)
  1751                           
  1752                           
  1753                           ;main.c: 160: {
  1754                           ;main.c: 173: if((RB2)||(RB1))
  1755  0DC9  1283               	bcf	3,5	;RP0=0, select bank0
  1756  0DCA  1303               	bcf	3,6	;RP1=0, select bank0
  1757  0DCB  1906               	btfsc	6,2	;volatile
  1758  0DCC  2DCF               	goto	l1838
  1759  0DCD  1C86               	btfss	6,1	;volatile
  1760  0DCE  2DD5               	goto	l385
  1761  0DCF                     l1838:	
  1762                           
  1763                           ;main.c: 174: {
  1764                           ;main.c: 175: if(TM.ComRun>=120)
  1765  0DCF  3078               	movlw	120
  1766  0DD0  0233               	subwf	_TM+3,w
  1767  0DD1  1C03               	skipc
  1768  0DD2  2DD6               	goto	l1842
  1769                           
  1770                           ;main.c: 176: SysErr.P6=1;
  1771  0DD3  173B               	bsf	_SysErr,6
  1772                           
  1773                           ;main.c: 177: }
  1774  0DD4  2DD6               	goto	l1842
  1775  0DD5                     l385:	
  1776                           
  1777                           ;main.c: 178: else
  1778                           ;main.c: 179: {
  1779                           ;main.c: 180: SysErr.P6=0;
  1780  0DD5  133B               	bcf	_SysErr,6
  1781  0DD6                     l1842:	
  1782                           
  1783                           ;main.c: 182: }
  1784                           ;main.c: 184: DriveTime();
  1785  0DD6  118A  26F7  158A   	fcall	_DriveTime
  1786                           
  1787                           ;main.c: 185: HPSystem();
  1788  0DD9  158A  2517  158A   	fcall	_HPSystem
  1789                           
  1790                           ;main.c: 186: DriveRelay();
  1791  0DDC  158A  2571  158A   	fcall	_DriveRelay
  1792                           
  1793                           ;main.c: 188: TEMPADC();
  1794  0DDF  158A  2642  158A   	fcall	_TEMPADC
  1795                           
  1796                           ;main.c: 190: ++adcc;
  1797  0DE2  3001               	movlw	1
  1798  0DE3  1283               	bcf	3,5	;RP0=0, select bank0
  1799  0DE4  1303               	bcf	3,6	;RP1=0, select bank0
  1800  0DE5  07BD               	addwf	_adcc,f
  1801  0DE6  1803               	skipnc
  1802  0DE7  0ABE               	incf	_adcc+1,f
  1803  0DE8  3000               	movlw	0
  1804  0DE9  07BE               	addwf	_adcc+1,f
  1805                           
  1806                           ;main.c: 191: if(adcc==5)
  1807  0DEA  3005               	movlw	5
  1808  0DEB  063D               	xorwf	_adcc,w
  1809  0DEC  043E               	iorwf	_adcc+1,w
  1810  0DED  1D03               	btfss	3,2
  1811  0DEE  2DF1               	goto	l1856
  1812                           
  1813                           ;main.c: 192: adcc=0;
  1814  0DEF  01BD               	clrf	_adcc
  1815  0DF0  01BE               	clrf	_adcc+1
  1816  0DF1                     l1856:	
  1817                           
  1818                           ;main.c: 193: ADON=0;
  1819  0DF1  101F               	bcf	31,0	;volatile
  1820  0DF2  2DC9               	goto	l1834
  1821  0DF3                     __end_of_main:	
  1822                           ;main.c: 194: }
  1823                           ;main.c: 196: return 0;
  1824                           ;	Return value of _main is never used
  1825                           
  1826                           
  1827                           	psect	text1
  1828  00F2                     __ptext1:	
  1829 ;; *************** function _timer0_init *****************
  1830 ;; Defined at:
  1831 ;;		line 84 in file "main.c"
  1832 ;; Parameters:    Size  Location     Type
  1833 ;;		None
  1834 ;; Auto vars:     Size  Location     Type
  1835 ;;		None
  1836 ;; Return value:  Size  Location     Type
  1837 ;;                  1    wreg      void 
  1838 ;; Registers used:
  1839 ;;		wreg
  1840 ;; Tracked objects:
  1841 ;;		On entry : 0/0
  1842 ;;		On exit  : 0/0
  1843 ;;		Unchanged: 0/0
  1844 ;; Data sizes:     COMMON   BANK0   BANK1
  1845 ;;      Params:         0       0       0
  1846 ;;      Locals:         0       0       0
  1847 ;;      Temps:          0       0       0
  1848 ;;      Totals:         0       0       0
  1849 ;;Total ram usage:        0 bytes
  1850 ;; Hardware stack levels used:    1
  1851 ;; Hardware stack levels required when called:    1
  1852 ;; This function calls:
  1853 ;;		Nothing
  1854 ;; This function is called by:
  1855 ;;		_main
  1856 ;; This function uses a non-reentrant model
  1857 ;;
  1858                           
  1859                           
  1860                           ;psect for function _timer0_init
  1861  00F2                     _timer0_init:	
  1862                           
  1863                           ;main.c: 86: T0CS=0;
  1864                           
  1865                           ;incstack = 0
  1866                           ; Regs used in _timer0_init: [wreg]
  1867  00F2  1683               	bsf	3,5	;RP0=1, select bank1
  1868  00F3  1303               	bcf	3,6	;RP1=0, select bank1
  1869  00F4  1281               	bcf	1,5	;volatile
  1870                           
  1871                           ;main.c: 87: PSA=1;
  1872  00F5  1581               	bsf	1,3	;volatile
  1873                           
  1874                           ;main.c: 88: T0IF=0;
  1875  00F6  110B               	bcf	11,2	;volatile
  1876                           
  1877                           ;main.c: 89: T0IE=1;
  1878  00F7  168B               	bsf	11,5	;volatile
  1879                           
  1880                           ;main.c: 90: TMR0=0x0e;
  1881  00F8  300E               	movlw	14
  1882  00F9  1283               	bcf	3,5	;RP0=0, select bank0
  1883  00FA  1303               	bcf	3,6	;RP1=0, select bank0
  1884  00FB  0081               	movwf	1	;volatile
  1885                           
  1886                           ;main.c: 94: GIE=1;
  1887  00FC  178B               	bsf	11,7	;volatile
  1888  00FD  0008               	return
  1889  00FE                     __end_of_timer0_init:	
  1890                           
  1891                           	psect	text2
  1892  07EC                     __ptext2:	
  1893 ;; *************** function _serial_init *****************
  1894 ;; Defined at:
  1895 ;;		line 127 in file "main.c"
  1896 ;; Parameters:    Size  Location     Type
  1897 ;;		None
  1898 ;; Auto vars:     Size  Location     Type
  1899 ;;		None
  1900 ;; Return value:  Size  Location     Type
  1901 ;;                  1    wreg      void 
  1902 ;; Registers used:
  1903 ;;		wreg
  1904 ;; Tracked objects:
  1905 ;;		On entry : 0/0
  1906 ;;		On exit  : 0/0
  1907 ;;		Unchanged: 0/0
  1908 ;; Data sizes:     COMMON   BANK0   BANK1
  1909 ;;      Params:         0       0       0
  1910 ;;      Locals:         0       0       0
  1911 ;;      Temps:          0       0       0
  1912 ;;      Totals:         0       0       0
  1913 ;;Total ram usage:        0 bytes
  1914 ;; Hardware stack levels used:    1
  1915 ;; Hardware stack levels required when called:    1
  1916 ;; This function calls:
  1917 ;;		Nothing
  1918 ;; This function is called by:
  1919 ;;		_main
  1920 ;; This function uses a non-reentrant model
  1921 ;;
  1922                           
  1923                           
  1924                           ;psect for function _serial_init
  1925  07EC                     _serial_init:	
  1926                           
  1927                           ;main.c: 130: TXSTA=0x24;
  1928                           
  1929                           ;incstack = 0
  1930                           ; Regs used in _serial_init: [wreg]
  1931  07EC  3024               	movlw	36
  1932  07ED  1683               	bsf	3,5	;RP0=1, select bank1
  1933  07EE  1303               	bcf	3,6	;RP1=0, select bank1
  1934  07EF  0098               	movwf	24	;volatile
  1935                           
  1936                           ;main.c: 131: RCSTA=0x80;
  1937  07F0  3080               	movlw	128
  1938  07F1  1283               	bcf	3,5	;RP0=0, select bank0
  1939  07F2  1303               	bcf	3,6	;RP1=0, select bank0
  1940  07F3  0098               	movwf	24	;volatile
  1941                           
  1942                           ;main.c: 132: SPBRG=0x19;
  1943  07F4  3019               	movlw	25
  1944  07F5  1683               	bsf	3,5	;RP0=1, select bank1
  1945  07F6  1303               	bcf	3,6	;RP1=0, select bank1
  1946  07F7  0099               	movwf	25	;volatile
  1947                           
  1948                           ;main.c: 133: GIE=1;
  1949  07F8  178B               	bsf	11,7	;volatile
  1950                           
  1951                           ;main.c: 134: PEIE=1;
  1952  07F9  170B               	bsf	11,6	;volatile
  1953                           
  1954                           ;main.c: 135: RCIE=0;
  1955  07FA  128C               	bcf	12,5	;volatile
  1956  07FB  0008               	return
  1957  07FC                     __end_of_serial_init:	
  1958                           
  1959                           	psect	text3
  1960  0514                     __ptext3:	
  1961 ;; *************** function _eevinit *****************
  1962 ;; Defined at:
  1963 ;;		line 34 in file "eev.c"
  1964 ;; Parameters:    Size  Location     Type
  1965 ;;		None
  1966 ;; Auto vars:     Size  Location     Type
  1967 ;;  i               2   17[BANK0 ] int 
  1968 ;; Return value:  Size  Location     Type
  1969 ;;                  1    wreg      void 
  1970 ;; Registers used:
  1971 ;;		wreg, fsr0l, fsr0h, status,2, status,0, btemp+1, pclath, cstack
  1972 ;; Tracked objects:
  1973 ;;		On entry : 0/0
  1974 ;;		On exit  : 0/0
  1975 ;;		Unchanged: 0/0
  1976 ;; Data sizes:     COMMON   BANK0   BANK1
  1977 ;;      Params:         0       0       0
  1978 ;;      Locals:         0       2       0
  1979 ;;      Temps:          0       5       0
  1980 ;;      Totals:         0       7       0
  1981 ;;Total ram usage:        7 bytes
  1982 ;; Hardware stack levels used:    1
  1983 ;; Hardware stack levels required when called:    3
  1984 ;; This function calls:
  1985 ;;		_delay2ms
  1986 ;;		_eevdriver
  1987 ;; This function is called by:
  1988 ;;		_main
  1989 ;; This function uses a non-reentrant model
  1990 ;;
  1991                           
  1992                           
  1993                           ;psect for function _eevinit
  1994  0514                     _eevinit:	
  1995                           
  1996                           ;incstack = 0
  1997                           ; Regs used in _eevinit: [wreg-fsr0h+status,2+status,0+btemp+1+pclath+cstack]
  1998  0514  3001               	movlw	1
  1999  0515  1283               	bcf	3,5	;RP0=0, select bank0
  2000  0516  1303               	bcf	3,6	;RP1=0, select bank0
  2001  0517  00DC               	movwf	eevinit@i
  2002  0518  3000               	movlw	0
  2003  0519  00DD               	movwf	eevinit@i+1
  2004                           
  2005                           ;eev.c: 38: PORTCBIT.LBIT=STEP[0];
  2006  051A  3004               	movlw	low (_STEP| (0+32768))
  2007  051B  0084               	movwf	4
  2008  051C  3085               	movlw	high (_STEP| (0+32768))
  2009  051D  00FF               	movwf	127
  2010  051E  118A  2100  118A   	fcall	stringtab
  2011  0521  00D7               	movwf	??_eevinit
  2012  0522  0807               	movf	7,w	;volatile
  2013  0523  0657               	xorwf	??_eevinit,w
  2014  0524  39F0               	andlw	-16
  2015  0525  0657               	xorwf	??_eevinit,w
  2016  0526  0087               	movwf	7	;volatile
  2017                           
  2018                           ;eev.c: 41: delay2ms(200);
  2019  0527  30C8               	movlw	200
  2020  0528                     L1:	
  2021  0528  00D0               	movwf	delay2ms@x
  2022  0529  3000               	movlw	0
  2023  052A  00D1               	movwf	delay2ms@x+1
  2024  052B  118A  27C9  118A   	fcall	_delay2ms
  2025                           
  2026                           ;eev.c: 42: while(i<(500-EEVSTEP))
  2027  052E  1283               	bcf	3,5	;RP0=0, select bank0
  2028  052F  1303               	bcf	3,6	;RP1=0, select bank0
  2029  0530  095F               	comf	_EEVSTEP,w
  2030  0531  00D7               	movwf	??_eevinit
  2031  0532  0960               	comf	_EEVSTEP+1,w
  2032  0533  00D8               	movwf	??_eevinit+1
  2033  0534  0AD7               	incf	??_eevinit,f
  2034  0535  1903               	skipnz
  2035  0536  0AD8               	incf	??_eevinit+1,f
  2036  0537  0857               	movf	??_eevinit,w
  2037  0538  3EF4               	addlw	244
  2038  0539  00D9               	movwf	??_eevinit+2
  2039  053A  0858               	movf	??_eevinit+1,w
  2040  053B  1803               	skipnc
  2041  053C  3E01               	addlw	1
  2042  053D  3E01               	addlw	1
  2043  053E  00DA               	movwf	??_eevinit+3
  2044  053F  085D               	movf	eevinit@i+1,w
  2045  0540  3A80               	xorlw	128
  2046  0541  00DB               	movwf	??_eevinit+4
  2047  0542  085A               	movf	??_eevinit+3,w
  2048  0543  3A80               	xorlw	128
  2049  0544  025B               	subwf	??_eevinit+4,w
  2050  0545  1D03               	skipz
  2051  0546  2D49               	goto	u1995
  2052  0547  0859               	movf	??_eevinit+2,w
  2053  0548  025C               	subwf	eevinit@i,w
  2054  0549                     u1995:	
  2055  0549  1803               	btfsc	3,0
  2056  054A  2D5E               	goto	l1740
  2057                           
  2058                           ;eev.c: 43: {eevdriver(1);
  2059  054B  3001               	movlw	1
  2060  054C  1283               	bcf	3,5	;RP0=0, select bank0
  2061  054D  1303               	bcf	3,6	;RP1=0, select bank0
  2062  054E  00D0               	movwf	eevdriver@x
  2063  054F  3000               	movlw	0
  2064  0550  00D1               	movwf	eevdriver@x+1
  2065  0551  158A  2698  118A   	fcall	_eevdriver
  2066                           
  2067                           ;eev.c: 44: i++;
  2068  0554  3001               	movlw	1
  2069  0555  1283               	bcf	3,5	;RP0=0, select bank0
  2070  0556  1303               	bcf	3,6	;RP1=0, select bank0
  2071  0557  07DC               	addwf	eevinit@i,f
  2072  0558  1803               	skipnc
  2073  0559  0ADD               	incf	eevinit@i+1,f
  2074  055A  3000               	movlw	0
  2075  055B  07DD               	addwf	eevinit@i+1,f
  2076                           
  2077                           ;eev.c: 45: delay2ms(8);
  2078  055C  3008               	movlw	8
  2079  055D  2D28               	goto	L1
  2080  055E                     l1740:	
  2081                           
  2082                           ;eev.c: 47: }
  2083                           ;eev.c: 50: PORTCBIT.LBIT=STEP[stepcount];
  2084  055E  1283               	bcf	3,5	;RP0=0, select bank0
  2085  055F  1303               	bcf	3,6	;RP1=0, select bank0
  2086  0560  0843               	movf	_stepcount,w
  2087  0561  00D7               	movwf	??_eevinit
  2088  0562  0757               	addwf	??_eevinit,w
  2089  0563  3E04               	addlw	low (_STEP| (0+32768))
  2090  0564  0084               	movwf	4
  2091  0565  3085               	movlw	high (_STEP| (0+32768))
  2092  0566  1803               	skipnc
  2093  0567  3E01               	addlw	1
  2094  0568  00FF               	movwf	127
  2095  0569  118A  2100  118A   	fcall	stringtab
  2096  056C  00D8               	movwf	??_eevinit+1
  2097  056D  0807               	movf	7,w	;volatile
  2098  056E  0658               	xorwf	??_eevinit+1,w
  2099  056F  39F0               	andlw	-16
  2100  0570  0658               	xorwf	??_eevinit+1,w
  2101  0571  0087               	movwf	7	;volatile
  2102                           
  2103                           ;eev.c: 51: delay2ms(200);
  2104  0572  30C8               	movlw	200
  2105  0573  00D0               	movwf	delay2ms@x
  2106  0574  3000               	movlw	0
  2107  0575  00D1               	movwf	delay2ms@x+1
  2108  0576  118A  27C9  118A   	fcall	_delay2ms
  2109                           
  2110                           ;eev.c: 52: i=0;
  2111  0579  1283               	bcf	3,5	;RP0=0, select bank0
  2112  057A  1303               	bcf	3,6	;RP1=0, select bank0
  2113  057B  01DC               	clrf	eevinit@i
  2114  057C  01DD               	clrf	eevinit@i+1
  2115  057D                     l1752:	
  2116                           ;eev.c: 53: while(i<560)
  2117                           
  2118  057D  1283               	bcf	3,5	;RP0=0, select bank0
  2119  057E  1303               	bcf	3,6	;RP1=0, select bank0
  2120  057F  085D               	movf	eevinit@i+1,w
  2121  0580  3A80               	xorlw	128
  2122  0581  00FF               	movwf	127
  2123  0582  3082               	movlw	130
  2124  0583  027F               	subwf	127,w
  2125  0584  1D03               	skipz
  2126  0585  2D88               	goto	u2005
  2127  0586  3030               	movlw	48
  2128  0587  025C               	subwf	eevinit@i,w
  2129  0588                     u2005:	
  2130  0588  1803               	btfsc	3,0
  2131  0589  2DA2               	goto	l1754
  2132                           
  2133                           ;eev.c: 54: {eevdriver(0);
  2134  058A  3000               	movlw	0
  2135  058B  1283               	bcf	3,5	;RP0=0, select bank0
  2136  058C  1303               	bcf	3,6	;RP1=0, select bank0
  2137  058D  00D0               	movwf	eevdriver@x
  2138  058E  00D1               	movwf	eevdriver@x+1
  2139  058F  158A  2698  118A   	fcall	_eevdriver
  2140                           
  2141                           ;eev.c: 55: i++;
  2142  0592  3001               	movlw	1
  2143  0593  1283               	bcf	3,5	;RP0=0, select bank0
  2144  0594  1303               	bcf	3,6	;RP1=0, select bank0
  2145  0595  07DC               	addwf	eevinit@i,f
  2146  0596  1803               	skipnc
  2147  0597  0ADD               	incf	eevinit@i+1,f
  2148  0598  3000               	movlw	0
  2149  0599  07DD               	addwf	eevinit@i+1,f
  2150                           
  2151                           ;eev.c: 56: delay2ms(8);
  2152  059A  3008               	movlw	8
  2153  059B  00D0               	movwf	delay2ms@x
  2154  059C  3000               	movlw	0
  2155  059D  00D1               	movwf	delay2ms@x+1
  2156  059E  118A  27C9  118A   	fcall	_delay2ms
  2157  05A1  2D7D               	goto	l1752
  2158  05A2                     l1754:	
  2159                           
  2160                           ;eev.c: 58: }
  2161                           ;eev.c: 62: PORTCBIT.LBIT=STEP[stepcount];
  2162  05A2  1283               	bcf	3,5	;RP0=0, select bank0
  2163  05A3  1303               	bcf	3,6	;RP1=0, select bank0
  2164  05A4  0843               	movf	_stepcount,w
  2165  05A5  00D7               	movwf	??_eevinit
  2166  05A6  0757               	addwf	??_eevinit,w
  2167  05A7  3E04               	addlw	low (_STEP| (0+32768))
  2168  05A8  0084               	movwf	4
  2169  05A9  3085               	movlw	high (_STEP| (0+32768))
  2170  05AA  1803               	skipnc
  2171  05AB  3E01               	addlw	1
  2172  05AC  00FF               	movwf	127
  2173  05AD  118A  2100  118A   	fcall	stringtab
  2174  05B0  00D8               	movwf	??_eevinit+1
  2175  05B1  0807               	movf	7,w	;volatile
  2176  05B2  0658               	xorwf	??_eevinit+1,w
  2177  05B3  39F0               	andlw	-16
  2178  05B4  0658               	xorwf	??_eevinit+1,w
  2179  05B5  0087               	movwf	7	;volatile
  2180                           
  2181                           ;eev.c: 63: delay2ms(200);
  2182  05B6  30C8               	movlw	200
  2183  05B7  00D0               	movwf	delay2ms@x
  2184  05B8  3000               	movlw	0
  2185  05B9  00D1               	movwf	delay2ms@x+1
  2186  05BA  118A  27C9  118A   	fcall	_delay2ms
  2187                           
  2188                           ;eev.c: 64: i=0;
  2189  05BD  1283               	bcf	3,5	;RP0=0, select bank0
  2190  05BE  1303               	bcf	3,6	;RP1=0, select bank0
  2191  05BF  01DC               	clrf	eevinit@i
  2192  05C0  01DD               	clrf	eevinit@i+1
  2193                           
  2194                           ;eev.c: 65: RC4=0;
  2195  05C1  1207               	bcf	7,4	;volatile
  2196  05C2                     l1768:	
  2197                           ;eev.c: 66: while(i<EEVSTEP)
  2198                           
  2199  05C2  1283               	bcf	3,5	;RP0=0, select bank0
  2200  05C3  1303               	bcf	3,6	;RP1=0, select bank0
  2201  05C4  085D               	movf	eevinit@i+1,w
  2202  05C5  3A80               	xorlw	128
  2203  05C6  00D7               	movwf	??_eevinit
  2204  05C7  0860               	movf	_EEVSTEP+1,w
  2205  05C8  3A80               	xorlw	128
  2206  05C9  0257               	subwf	??_eevinit,w
  2207  05CA  1D03               	skipz
  2208  05CB  2DCE               	goto	u2015
  2209  05CC  085F               	movf	_EEVSTEP,w
  2210  05CD  025C               	subwf	eevinit@i,w
  2211  05CE                     u2015:	
  2212  05CE  1803               	btfsc	3,0
  2213  05CF  2DE9               	goto	l1770
  2214                           
  2215                           ;eev.c: 67: {eevdriver(1);
  2216  05D0  3001               	movlw	1
  2217  05D1  1283               	bcf	3,5	;RP0=0, select bank0
  2218  05D2  1303               	bcf	3,6	;RP1=0, select bank0
  2219  05D3  00D0               	movwf	eevdriver@x
  2220  05D4  3000               	movlw	0
  2221  05D5  00D1               	movwf	eevdriver@x+1
  2222  05D6  158A  2698  118A   	fcall	_eevdriver
  2223                           
  2224                           ;eev.c: 68: i++;
  2225  05D9  3001               	movlw	1
  2226  05DA  1283               	bcf	3,5	;RP0=0, select bank0
  2227  05DB  1303               	bcf	3,6	;RP1=0, select bank0
  2228  05DC  07DC               	addwf	eevinit@i,f
  2229  05DD  1803               	skipnc
  2230  05DE  0ADD               	incf	eevinit@i+1,f
  2231  05DF  3000               	movlw	0
  2232  05E0  07DD               	addwf	eevinit@i+1,f
  2233                           
  2234                           ;eev.c: 69: delay2ms(8);
  2235  05E1  3008               	movlw	8
  2236  05E2  00D0               	movwf	delay2ms@x
  2237  05E3  3000               	movlw	0
  2238  05E4  00D1               	movwf	delay2ms@x+1
  2239  05E5  118A  27C9  118A   	fcall	_delay2ms
  2240  05E8  2DC2               	goto	l1768
  2241  05E9                     l1770:	
  2242                           
  2243                           ;eev.c: 71: }
  2244                           ;eev.c: 72: PORTCBIT.LBIT=STEP[stepcount];
  2245  05E9  1283               	bcf	3,5	;RP0=0, select bank0
  2246  05EA  1303               	bcf	3,6	;RP1=0, select bank0
  2247  05EB  0843               	movf	_stepcount,w
  2248  05EC  00D7               	movwf	??_eevinit
  2249  05ED  0757               	addwf	??_eevinit,w
  2250  05EE  3E04               	addlw	low (_STEP| (0+32768))
  2251  05EF  0084               	movwf	4
  2252  05F0  3085               	movlw	high (_STEP| (0+32768))
  2253  05F1  1803               	skipnc
  2254  05F2  3E01               	addlw	1
  2255  05F3  00FF               	movwf	127
  2256  05F4  118A  2100  118A   	fcall	stringtab
  2257  05F7  00D8               	movwf	??_eevinit+1
  2258  05F8  0807               	movf	7,w	;volatile
  2259  05F9  0658               	xorwf	??_eevinit+1,w
  2260  05FA  39F0               	andlw	-16
  2261  05FB  0658               	xorwf	??_eevinit+1,w
  2262  05FC  0087               	movwf	7	;volatile
  2263                           
  2264                           ;eev.c: 73: delay2ms(240);
  2265  05FD  30F0               	movlw	240
  2266  05FE  00D0               	movwf	delay2ms@x
  2267  05FF  3000               	movlw	0
  2268  0600  00D1               	movwf	delay2ms@x+1
  2269  0601  118A  27C9         	fcall	_delay2ms
  2270                           
  2271                           ;eev.c: 74: PORTCBIT.LBIT=0x0;
  2272  0603  30F0               	movlw	-16
  2273  0604  1283               	bcf	3,5	;RP0=0, select bank0
  2274  0605  1303               	bcf	3,6	;RP1=0, select bank0
  2275  0606  0587               	andwf	7,f	;volatile
  2276  0607  0008               	return
  2277  0608                     __end_of_eevinit:	
  2278                           
  2279                           	psect	text4
  2280  0E42                     __ptext4:	
  2281 ;; *************** function _TEMPADC *****************
  2282 ;; Defined at:
  2283 ;;		line 200 in file "main.c"
  2284 ;; Parameters:    Size  Location     Type
  2285 ;;		None
  2286 ;; Auto vars:     Size  Location     Type
  2287 ;;  uwAdcSample     1   19[BANK0 ] unsigned char 
  2288 ;; Return value:  Size  Location     Type
  2289 ;;                  1    wreg      void 
  2290 ;; Registers used:
  2291 ;;		wreg, fsr0l, fsr0h, status,2, status,0, btemp+1, pclath, cstack
  2292 ;; Tracked objects:
  2293 ;;		On entry : 0/0
  2294 ;;		On exit  : 0/0
  2295 ;;		Unchanged: 0/0
  2296 ;; Data sizes:     COMMON   BANK0   BANK1
  2297 ;;      Params:         0       0       0
  2298 ;;      Locals:         0       1       0
  2299 ;;      Temps:          0       5       0
  2300 ;;      Totals:         0       6       0
  2301 ;;Total ram usage:        6 bytes
  2302 ;; Hardware stack levels used:    1
  2303 ;; Hardware stack levels required when called:    3
  2304 ;; This function calls:
  2305 ;;		_ADC
  2306 ;; This function is called by:
  2307 ;;		_main
  2308 ;; This function uses a non-reentrant model
  2309 ;;
  2310                           
  2311                           
  2312                           ;psect for function _TEMPADC
  2313  0E42                     _TEMPADC:	
  2314                           
  2315                           ;main.c: 201: unsigned char uwAdcSample = 0;
  2316                           
  2317                           ;incstack = 0
  2318                           ; Regs used in _TEMPADC: [wreg-fsr0h+status,2+status,0+btemp+1+pclath+cstack]
  2319  0E42  1283               	bcf	3,5	;RP0=0, select bank0
  2320  0E43  1303               	bcf	3,6	;RP1=0, select bank0
  2321  0E44  01DE               	clrf	TEMPADC@uwAdcSample
  2322                           
  2323                           ;main.c: 202: uwAdcSample=ADC(adcc);
  2324  0E45  083E               	movf	_adcc+1,w
  2325  0E46  00D7               	movwf	ADC@x+1
  2326  0E47  083D               	movf	_adcc,w
  2327  0E48  00D6               	movwf	ADC@x
  2328  0E49  158A  258E  158A   	fcall	_ADC
  2329  0E4C  1283               	bcf	3,5	;RP0=0, select bank0
  2330  0E4D  1303               	bcf	3,6	;RP1=0, select bank0
  2331  0E4E  00D9               	movwf	??_TEMPADC
  2332  0E4F  0859               	movf	??_TEMPADC,w
  2333  0E50  00DE               	movwf	TEMPADC@uwAdcSample
  2334                           
  2335                           ;main.c: 225: if(adcc==4)
  2336  0E51  3004               	movlw	4
  2337  0E52  063D               	xorwf	_adcc,w
  2338  0E53  043E               	iorwf	_adcc+1,w
  2339  0E54  1D03               	btfss	3,2
  2340  0E55  2E77               	goto	l1798
  2341                           
  2342                           ;main.c: 226: {
  2343                           ;main.c: 236: T[adcc]=tkTempTab[(int)(uwAdcSample)];
  2344  0E56  085E               	movf	TEMPADC@uwAdcSample,w
  2345  0E57  00D9               	movwf	??_TEMPADC
  2346  0E58  01DA               	clrf	??_TEMPADC+1
  2347  0E59  1003               	clrc
  2348  0E5A  0DD9               	rlf	??_TEMPADC,f
  2349  0E5B  0DDA               	rlf	??_TEMPADC+1,f
  2350  0E5C  3083               	movlw	high (_tkTempTab| (0+32768))
  2351  0E5D  075A               	addwf	??_TEMPADC+1,w
  2352  0E5E  00FF               	movwf	127
  2353  0E5F  3012               	movlw	low (_tkTempTab| (0+32768))
  2354  0E60  0759               	addwf	??_TEMPADC,w
  2355  0E61  0084               	movwf	4
  2356  0E62  1803               	skipnc
  2357  0E63  0AFF               	incf	127,f
  2358  0E64  118A  2100  158A   	fcall	stringtab
  2359  0E67  00DB               	movwf	??_TEMPADC+2
  2360  0E68  118A  2100         	fcall	stringtab
  2361  0E6A  00DC               	movwf	??_TEMPADC+3
  2362  0E6B  083D               	movf	_adcc,w
  2363  0E6C  00DD               	movwf	??_TEMPADC+4
  2364  0E6D  075D               	addwf	??_TEMPADC+4,w
  2365  0E6E  3E20               	addlw	(low (_T| 0))& (0+255)
  2366  0E6F  0084               	movwf	4
  2367  0E70  085B               	movf	??_TEMPADC+2,w
  2368  0E71  1383               	bcf	3,7	;select IRP bank0
  2369  0E72  0080               	movwf	0
  2370  0E73  0A84               	incf	4,f
  2371  0E74  085C               	movf	??_TEMPADC+3,w
  2372  0E75  0080               	movwf	0
  2373                           
  2374                           ;main.c: 237: }
  2375  0E76  0008               	return
  2376  0E77                     l1798:	
  2377                           
  2378                           ;main.c: 238: else
  2379                           ;main.c: 239: {
  2380                           ;main.c: 240: T[adcc]=fkTempTab[(int)(uwAdcSample)];
  2381  0E77  085E               	movf	TEMPADC@uwAdcSample,w
  2382  0E78  00D9               	movwf	??_TEMPADC
  2383  0E79  01DA               	clrf	??_TEMPADC+1
  2384  0E7A  1003               	clrc
  2385  0E7B  0DD9               	rlf	??_TEMPADC,f
  2386  0E7C  0DDA               	rlf	??_TEMPADC+1,f
  2387  0E7D  3081               	movlw	high (_fkTempTab| (0+32768))
  2388  0E7E  075A               	addwf	??_TEMPADC+1,w
  2389  0E7F  00FF               	movwf	127
  2390  0E80  3012               	movlw	low (_fkTempTab| (0+32768))
  2391  0E81  0759               	addwf	??_TEMPADC,w
  2392  0E82  0084               	movwf	4
  2393  0E83  1803               	skipnc
  2394  0E84  0AFF               	incf	127,f
  2395  0E85  118A  2100  158A   	fcall	stringtab
  2396  0E88  00DB               	movwf	??_TEMPADC+2
  2397  0E89  118A  2100         	fcall	stringtab
  2398  0E8B  00DC               	movwf	??_TEMPADC+3
  2399  0E8C  083D               	movf	_adcc,w
  2400  0E8D  00DD               	movwf	??_TEMPADC+4
  2401  0E8E  075D               	addwf	??_TEMPADC+4,w
  2402  0E8F  3E20               	addlw	(low (_T| 0))& (0+255)
  2403  0E90  0084               	movwf	4
  2404  0E91  085B               	movf	??_TEMPADC+2,w
  2405  0E92  1383               	bcf	3,7	;select IRP bank0
  2406  0E93  0080               	movwf	0
  2407  0E94  0A84               	incf	4,f
  2408  0E95  085C               	movf	??_TEMPADC+3,w
  2409  0E96  0080               	movwf	0
  2410  0E97  0008               	return
  2411  0E98                     __end_of_TEMPADC:	
  2412                           
  2413                           	psect	text5
  2414  0D8E                     __ptext5:	
  2415 ;; *************** function _ADC *****************
  2416 ;; Defined at:
  2417 ;;		line 68 in file "main.c"
  2418 ;; Parameters:    Size  Location     Type
  2419 ;;  x               2   11[BANK0 ] unsigned int 
  2420 ;; Auto vars:     Size  Location     Type
  2421 ;;		None
  2422 ;; Return value:  Size  Location     Type
  2423 ;;                  1    wreg      unsigned char 
  2424 ;; Registers used:
  2425 ;;		wreg, status,2, status,0, pclath, cstack
  2426 ;; Tracked objects:
  2427 ;;		On entry : 0/0
  2428 ;;		On exit  : 0/0
  2429 ;;		Unchanged: 0/0
  2430 ;; Data sizes:     COMMON   BANK0   BANK1
  2431 ;;      Params:         0       2       0
  2432 ;;      Locals:         0       0       0
  2433 ;;      Temps:          0       1       0
  2434 ;;      Totals:         0       3       0
  2435 ;;Total ram usage:        3 bytes
  2436 ;; Hardware stack levels used:    1
  2437 ;; Hardware stack levels required when called:    2
  2438 ;; This function calls:
  2439 ;;		_delay2ms
  2440 ;; This function is called by:
  2441 ;;		_TEMPADC
  2442 ;; This function uses a non-reentrant model
  2443 ;;
  2444                           
  2445                           
  2446                           ;psect for function _ADC
  2447  0D8E                     _ADC:	
  2448                           
  2449                           ;main.c: 70: ADCON1=0x02;
  2450                           
  2451                           ;incstack = 0
  2452                           ; Regs used in _ADC: [wreg+status,2+status,0+pclath+cstack]
  2453  0D8E  3002               	movlw	2
  2454  0D8F  1683               	bsf	3,5	;RP0=1, select bank1
  2455  0D90  1303               	bcf	3,6	;RP1=0, select bank1
  2456  0D91  009F               	movwf	31	;volatile
  2457                           
  2458                           ;main.c: 71: ADCON0=0b01000000;
  2459  0D92  3040               	movlw	64
  2460  0D93  1283               	bcf	3,5	;RP0=0, select bank0
  2461  0D94  1303               	bcf	3,6	;RP1=0, select bank0
  2462  0D95  009F               	movwf	31	;volatile
  2463                           
  2464                           ;main.c: 72: ADCON0bits.CHS=x;
  2465  0D96  0856               	movf	ADC@x,w
  2466  0D97  00D8               	movwf	??_ADC
  2467  0D98  0DD8               	rlf	??_ADC,f
  2468  0D99  0DD8               	rlf	??_ADC,f
  2469  0D9A  0DD8               	rlf	??_ADC,f
  2470  0D9B  081F               	movf	31,w	;volatile
  2471  0D9C  0658               	xorwf	??_ADC,w
  2472  0D9D  39C7               	andlw	-57
  2473  0D9E  0658               	xorwf	??_ADC,w
  2474  0D9F  009F               	movwf	31	;volatile
  2475                           
  2476                           ;main.c: 74: ADON=0b1;
  2477  0DA0  141F               	bsf	31,0	;volatile
  2478                           
  2479                           ;main.c: 75: delay2ms(3);
  2480  0DA1  3003               	movlw	3
  2481  0DA2  00D0               	movwf	delay2ms@x
  2482  0DA3  3000               	movlw	0
  2483  0DA4  00D1               	movwf	delay2ms@x+1
  2484  0DA5  118A  27C9  158A   	fcall	_delay2ms
  2485                           
  2486                           ;main.c: 77: GO=1;
  2487  0DA8  1283               	bcf	3,5	;RP0=0, select bank0
  2488  0DA9  1303               	bcf	3,6	;RP1=0, select bank0
  2489  0DAA  151F               	bsf	31,2	;volatile
  2490  0DAB                     l360:	
  2491                           ;main.c: 79: while(GO);
  2492                           
  2493  0DAB  191F               	btfsc	31,2	;volatile
  2494  0DAC  2DAB               	goto	l360
  2495                           
  2496                           ;main.c: 80: return ADRES;
  2497  0DAD  081E               	movf	30,w	;volatile
  2498  0DAE  0008               	return
  2499  0DAF                     __end_of_ADC:	
  2500                           
  2501                           	psect	text6
  2502  0D17                     __ptext6:	
  2503 ;; *************** function _HPSystem *****************
  2504 ;; Defined at:
  2505 ;;		line 169 in file "HPsystem.c"
  2506 ;; Parameters:    Size  Location     Type
  2507 ;;		None
  2508 ;; Auto vars:     Size  Location     Type
  2509 ;;		None
  2510 ;; Return value:  Size  Location     Type
  2511 ;;                  1    wreg      void 
  2512 ;; Registers used:
  2513 ;;		wreg, status,2, status,0, btemp+1, pclath, cstack
  2514 ;; Tracked objects:
  2515 ;;		On entry : 0/0
  2516 ;;		On exit  : 0/0
  2517 ;;		Unchanged: 0/0
  2518 ;; Data sizes:     COMMON   BANK0   BANK1
  2519 ;;      Params:         0       0       0
  2520 ;;      Locals:         0       0       0
  2521 ;;      Temps:          0       0       0
  2522 ;;      Totals:         0       0       0
  2523 ;;Total ram usage:        0 bytes
  2524 ;; Hardware stack levels used:    1
  2525 ;; Hardware stack levels required when called:    3
  2526 ;; This function calls:
  2527 ;;		_HPOuUnit
  2528 ;;		_HPstart
  2529 ;; This function is called by:
  2530 ;;		_main
  2531 ;; This function uses a non-reentrant model
  2532 ;;
  2533                           
  2534                           
  2535                           ;psect for function _HPSystem
  2536  0D17                     _HPSystem:	
  2537                           
  2538                           ;HPsystem.c: 174: HPstart();
  2539                           
  2540                           ;incstack = 0
  2541                           ; Regs used in _HPSystem: [wreg+status,2+status,0+btemp+1+pclath+cstack]
  2542  0D17  118A  2608  158A   	fcall	_HPstart
  2543                           
  2544                           ;HPsystem.c: 175: HPOuUnit();
  2545  0D1A  118A  2030         	fcall	_HPOuUnit
  2546  0D1C  0008               	return
  2547  0D1D                     __end_of_HPSystem:	
  2548                           
  2549                           	psect	text7
  2550  0608                     __ptext7:	
  2551 ;; *************** function _HPstart *****************
  2552 ;; Defined at:
  2553 ;;		line 14 in file "HPsystem.c"
  2554 ;; Parameters:    Size  Location     Type
  2555 ;;		None
  2556 ;; Auto vars:     Size  Location     Type
  2557 ;;		None
  2558 ;; Return value:  Size  Location     Type
  2559 ;;                  1    wreg      void 
  2560 ;; Registers used:
  2561 ;;		wreg, status,2, status,0, btemp+1, pclath, cstack
  2562 ;; Tracked objects:
  2563 ;;		On entry : 0/0
  2564 ;;		On exit  : 0/0
  2565 ;;		Unchanged: 0/0
  2566 ;; Data sizes:     COMMON   BANK0   BANK1
  2567 ;;      Params:         0       0       0
  2568 ;;      Locals:         0       0       0
  2569 ;;      Temps:          0       2       0
  2570 ;;      Totals:         0       2       0
  2571 ;;Total ram usage:        2 bytes
  2572 ;; Hardware stack levels used:    1
  2573 ;; Hardware stack levels required when called:    2
  2574 ;; This function calls:
  2575 ;;		_UART_SendByte
  2576 ;;		_abs
  2577 ;;		_delay2ms
  2578 ;; This function is called by:
  2579 ;;		_HPSystem
  2580 ;; This function uses a non-reentrant model
  2581 ;;
  2582                           
  2583                           
  2584                           ;psect for function _HPstart
  2585  0608                     _HPstart:	
  2586                           
  2587                           ;HPsystem.c: 16: if(RB0==0)
  2588                           
  2589                           ;incstack = 0
  2590                           ; Regs used in _HPstart: [wreg+status,2+status,0+btemp+1+pclath+cstack]
  2591  0608  1283               	bcf	3,5	;RP0=0, select bank0
  2592  0609  1303               	bcf	3,6	;RP1=0, select bank0
  2593  060A  1806               	btfsc	6,0	;volatile
  2594  060B  2E72               	goto	l138
  2595                           
  2596                           ;HPsystem.c: 18: {
  2597                           ;HPsystem.c: 22: ff=0;
  2598  060C  01C1               	clrf	_ff
  2599  060D  01C2               	clrf	_ff+1
  2600                           
  2601                           ;HPsystem.c: 23: if(SysErr.P6)
  2602  060E  1F3B               	btfss	_SysErr,6
  2603  060F  2E5C               	goto	l1506
  2604                           
  2605                           ;HPsystem.c: 24: {
  2606                           ;HPsystem.c: 25: if(ee==0)
  2607  0610  083F               	movf	_ee,w
  2608  0611  0440               	iorwf	_ee+1,w
  2609  0612  1D03               	btfss	3,2
  2610  0613  2E21               	goto	l140
  2611                           
  2612                           ;HPsystem.c: 26: {
  2613                           ;HPsystem.c: 27: {t2=Clock;ee++;}
  2614  0614  0861               	movf	_Clock,w
  2615  0615  00D6               	movwf	??_HPstart
  2616  0616  01D7               	clrf	??_HPstart+1
  2617  0617  0856               	movf	??_HPstart,w
  2618  0618  00C7               	movwf	_t2
  2619  0619  0857               	movf	??_HPstart+1,w
  2620  061A  00C8               	movwf	_t2+1
  2621  061B  3001               	movlw	1
  2622  061C  07BF               	addwf	_ee,f
  2623  061D  1803               	skipnc
  2624  061E  0AC0               	incf	_ee+1,f
  2625  061F  3000               	movlw	0
  2626  0620  07C0               	addwf	_ee+1,f
  2627  0621                     l140:	
  2628                           
  2629                           ;HPsystem.c: 28: }
  2630                           ;HPsystem.c: 29: ee++;
  2631  0621  3001               	movlw	1
  2632  0622  07BF               	addwf	_ee,f
  2633  0623  1803               	skipnc
  2634  0624  0AC0               	incf	_ee+1,f
  2635  0625  3000               	movlw	0
  2636  0626  07C0               	addwf	_ee+1,f
  2637                           
  2638                           ;HPsystem.c: 30: if((abs(Clock-t2)>10)&&(ee>30))
  2639  0627  0947               	comf	_t2,w
  2640  0628  00D6               	movwf	??_HPstart
  2641  0629  0948               	comf	_t2+1,w
  2642  062A  00D7               	movwf	??_HPstart+1
  2643  062B  0AD6               	incf	??_HPstart,f
  2644  062C  1903               	skipnz
  2645  062D  0AD7               	incf	??_HPstart+1,f
  2646  062E  0861               	movf	_Clock,w
  2647  062F  0756               	addwf	??_HPstart,w
  2648  0630  00D0               	movwf	abs@a
  2649  0631  0857               	movf	??_HPstart+1,w
  2650  0632  1803               	skipnc
  2651  0633  0A57               	incf	??_HPstart+1,w
  2652  0634  00D1               	movwf	abs@a+1
  2653  0635  158A  252F  118A   	fcall	_abs
  2654  0638  1283               	bcf	3,5	;RP0=0, select bank0
  2655  0639  1303               	bcf	3,6	;RP1=0, select bank0
  2656  063A  0851               	movf	?_abs+1,w
  2657  063B  3A80               	xorlw	128
  2658  063C  00FF               	movwf	127
  2659  063D  3080               	movlw	128
  2660  063E  027F               	subwf	127,w
  2661  063F  1D03               	skipz
  2662  0640  2E43               	goto	u1515
  2663  0641  300B               	movlw	11
  2664  0642  0250               	subwf	?_abs,w
  2665  0643                     u1515:	
  2666  0643  1C03               	skipc
  2667  0644  2ED1               	goto	l1530
  2668  0645  1283               	bcf	3,5	;RP0=0, select bank0
  2669  0646  1303               	bcf	3,6	;RP1=0, select bank0
  2670  0647  0840               	movf	_ee+1,w
  2671  0648  3A80               	xorlw	128
  2672  0649  00FF               	movwf	127
  2673  064A  3080               	movlw	128
  2674  064B  027F               	subwf	127,w
  2675  064C  1D03               	skipz
  2676  064D  2E50               	goto	u1525
  2677  064E  301F               	movlw	31
  2678  064F  023F               	subwf	_ee,w
  2679  0650                     u1525:	
  2680  0650  1C03               	skipc
  2681  0651  2ED1               	goto	l1530
  2682                           
  2683                           ;HPsystem.c: 31: {Judge.Working=NoWork;
  2684  0652  30E3               	movlw	-29
  2685  0653  1283               	bcf	3,5	;RP0=0, select bank0
  2686  0654  1303               	bcf	3,6	;RP1=0, select bank0
  2687  0655  05B9               	andwf	_Judge,f
  2688                           
  2689                           ;HPsystem.c: 32: UART_SendByte(0xee); UART_SendByte(0xe6);
  2690  0656  30EE               	movlw	238
  2691  0657  158A  2525  118A   	fcall	_UART_SendByte
  2692  065A  30E6               	movlw	230
  2693  065B  2ECE               	goto	L2
  2694  065C                     l1506:	
  2695                           ;HPsystem.c: 33: }
  2696                           ;HPsystem.c: 34: }
  2697                           
  2698                           
  2699                           ;HPsystem.c: 35: else if(T[3]<=52)
  2700  065C  1283               	bcf	3,5	;RP0=0, select bank0
  2701  065D  1303               	bcf	3,6	;RP1=0, select bank0
  2702  065E  0827               	movf	_T+7,w
  2703  065F  3A80               	xorlw	128
  2704  0660  00FF               	movwf	127
  2705  0661  3080               	movlw	128
  2706  0662  027F               	subwf	127,w
  2707  0663  1D03               	skipz
  2708  0664  2E67               	goto	u1535
  2709  0665  3035               	movlw	53
  2710  0666  0226               	subwf	_T+6,w
  2711  0667                     u1535:	
  2712  0667  1803               	skipnc
  2713  0668  2ED1               	goto	l1530
  2714                           
  2715                           ;HPsystem.c: 36: {
  2716                           ;HPsystem.c: 37: Judge.Working=WorkH;ee=0;}
  2717  0669  1283               	bcf	3,5	;RP0=0, select bank0
  2718  066A  1303               	bcf	3,6	;RP1=0, select bank0
  2719  066B  0839               	movf	_Judge,w
  2720  066C  39E3               	andlw	-29
  2721  066D  3808               	iorlw	8
  2722  066E  00B9               	movwf	_Judge
  2723  066F  01BF               	clrf	_ee
  2724  0670  01C0               	clrf	_ee+1
  2725                           
  2726                           ;HPsystem.c: 38: }
  2727  0671  2ED1               	goto	l1530
  2728  0672                     l138:	
  2729                           
  2730                           ;HPsystem.c: 39: else if(RB0==1) {
  2731  0672  1C06               	btfss	6,0	;volatile
  2732  0673  2ED1               	goto	l1530
  2733                           
  2734                           ;HPsystem.c: 40: delay2ms(1);
  2735  0674  3001               	movlw	1
  2736  0675  00D0               	movwf	delay2ms@x
  2737  0676  3000               	movlw	0
  2738  0677  00D1               	movwf	delay2ms@x+1
  2739  0678  118A  27C9  118A   	fcall	_delay2ms
  2740                           
  2741                           ;HPsystem.c: 42: if(ff==0)
  2742  067B  1283               	bcf	3,5	;RP0=0, select bank0
  2743  067C  1303               	bcf	3,6	;RP1=0, select bank0
  2744  067D  0841               	movf	_ff,w
  2745  067E  0442               	iorwf	_ff+1,w
  2746  067F  1D03               	btfss	3,2
  2747  0680  2E8E               	goto	l146
  2748                           
  2749                           ;HPsystem.c: 43: {t1=Clock;ff++;
  2750  0681  0861               	movf	_Clock,w
  2751  0682  00D6               	movwf	??_HPstart
  2752  0683  01D7               	clrf	??_HPstart+1
  2753  0684  0856               	movf	??_HPstart,w
  2754  0685  00C5               	movwf	_t1
  2755  0686  0857               	movf	??_HPstart+1,w
  2756  0687  00C6               	movwf	_t1+1
  2757  0688  3001               	movlw	1
  2758  0689  07C1               	addwf	_ff,f
  2759  068A  1803               	skipnc
  2760  068B  0AC2               	incf	_ff+1,f
  2761  068C  3000               	movlw	0
  2762  068D  07C2               	addwf	_ff+1,f
  2763  068E                     l146:	
  2764                           
  2765                           ;HPsystem.c: 45: }
  2766                           ;HPsystem.c: 46: ff++;
  2767  068E  3001               	movlw	1
  2768  068F  07C1               	addwf	_ff,f
  2769  0690  1803               	skipnc
  2770  0691  0AC2               	incf	_ff+1,f
  2771  0692  3000               	movlw	0
  2772  0693  07C2               	addwf	_ff+1,f
  2773                           
  2774                           ;HPsystem.c: 47: if((abs(Clock-t1)>10)&&(ff>30))
  2775  0694  0945               	comf	_t1,w
  2776  0695  00D6               	movwf	??_HPstart
  2777  0696  0946               	comf	_t1+1,w
  2778  0697  00D7               	movwf	??_HPstart+1
  2779  0698  0AD6               	incf	??_HPstart,f
  2780  0699  1903               	skipnz
  2781  069A  0AD7               	incf	??_HPstart+1,f
  2782  069B  0861               	movf	_Clock,w
  2783  069C  0756               	addwf	??_HPstart,w
  2784  069D  00D0               	movwf	abs@a
  2785  069E  0857               	movf	??_HPstart+1,w
  2786  069F  1803               	skipnc
  2787  06A0  0A57               	incf	??_HPstart+1,w
  2788  06A1  00D1               	movwf	abs@a+1
  2789  06A2  158A  252F  118A   	fcall	_abs
  2790  06A5  1283               	bcf	3,5	;RP0=0, select bank0
  2791  06A6  1303               	bcf	3,6	;RP1=0, select bank0
  2792  06A7  0851               	movf	?_abs+1,w
  2793  06A8  3A80               	xorlw	128
  2794  06A9  00FF               	movwf	127
  2795  06AA  3080               	movlw	128
  2796  06AB  027F               	subwf	127,w
  2797  06AC  1D03               	skipz
  2798  06AD  2EB0               	goto	u1565
  2799  06AE  300B               	movlw	11
  2800  06AF  0250               	subwf	?_abs,w
  2801  06B0                     u1565:	
  2802  06B0  1C03               	skipc
  2803  06B1  2ED1               	goto	l1530
  2804  06B2  1283               	bcf	3,5	;RP0=0, select bank0
  2805  06B3  1303               	bcf	3,6	;RP1=0, select bank0
  2806  06B4  0842               	movf	_ff+1,w
  2807  06B5  3A80               	xorlw	128
  2808  06B6  00FF               	movwf	127
  2809  06B7  3080               	movlw	128
  2810  06B8  027F               	subwf	127,w
  2811  06B9  1D03               	skipz
  2812  06BA  2EBD               	goto	u1575
  2813  06BB  301F               	movlw	31
  2814  06BC  0241               	subwf	_ff,w
  2815  06BD                     u1575:	
  2816  06BD  1C03               	skipc
  2817  06BE  2ED1               	goto	l1530
  2818                           
  2819                           ;HPsystem.c: 48: {Judge.Working=NoWork;
  2820  06BF  30E3               	movlw	-29
  2821  06C0  1283               	bcf	3,5	;RP0=0, select bank0
  2822  06C1  1303               	bcf	3,6	;RP1=0, select bank0
  2823  06C2  05B9               	andwf	_Judge,f
  2824                           
  2825                           ;HPsystem.c: 49: UART_SendByte(0xee); UART_SendByte(0x1);UART_SendByte(Clock);
  2826  06C3  30EE               	movlw	238
  2827  06C4  158A  2525  118A   	fcall	_UART_SendByte
  2828  06C7  3001               	movlw	1
  2829  06C8  158A  2525  118A   	fcall	_UART_SendByte
  2830  06CB  1283               	bcf	3,5	;RP0=0, select bank0
  2831  06CC  1303               	bcf	3,6	;RP1=0, select bank0
  2832  06CD  0861               	movf	_Clock,w
  2833  06CE                     L2:	
  2834  06CE  158A  2525  118A   	fcall	_UART_SendByte
  2835  06D1                     l1530:	
  2836                           
  2837                           ;HPsystem.c: 50: }
  2838                           ;HPsystem.c: 51: }
  2839                           ;HPsystem.c: 52: if(T[3]>58||T[4]>115)
  2840  06D1  1283               	bcf	3,5	;RP0=0, select bank0
  2841  06D2  1303               	bcf	3,6	;RP1=0, select bank0
  2842  06D3  0827               	movf	_T+7,w
  2843  06D4  3A80               	xorlw	128
  2844  06D5  00FF               	movwf	127
  2845  06D6  3080               	movlw	128
  2846  06D7  027F               	subwf	127,w
  2847  06D8  1D03               	skipz
  2848  06D9  2EDC               	goto	u1585
  2849  06DA  303B               	movlw	59
  2850  06DB  0226               	subwf	_T+6,w
  2851  06DC                     u1585:	
  2852  06DC  1803               	skipnc
  2853  06DD  2EEB               	goto	l1534
  2854  06DE  1283               	bcf	3,5	;RP0=0, select bank0
  2855  06DF  1303               	bcf	3,6	;RP1=0, select bank0
  2856  06E0  0829               	movf	_T+9,w
  2857  06E1  3A80               	xorlw	128
  2858  06E2  00FF               	movwf	127
  2859  06E3  3080               	movlw	128
  2860  06E4  027F               	subwf	127,w
  2861  06E5  1D03               	skipz
  2862  06E6  2EE9               	goto	u1595
  2863  06E7  3074               	movlw	116
  2864  06E8  0228               	subwf	_T+8,w
  2865  06E9                     u1595:	
  2866  06E9  1C03               	skipc
  2867  06EA  0008               	return
  2868  06EB                     l1534:	
  2869                           
  2870                           ;HPsystem.c: 53: { Judge.Working=NoWork;
  2871  06EB  30E3               	movlw	-29
  2872  06EC  1283               	bcf	3,5	;RP0=0, select bank0
  2873  06ED  1303               	bcf	3,6	;RP1=0, select bank0
  2874  06EE  05B9               	andwf	_Judge,f
  2875                           
  2876                           ;HPsystem.c: 54: UART_SendByte(0xee); UART_SendByte(0x2);
  2877  06EF  30EE               	movlw	238
  2878  06F0  158A  2525  118A   	fcall	_UART_SendByte
  2879  06F3  3002               	movlw	2
  2880  06F4  158A  2525         	fcall	_UART_SendByte
  2881  06F6  0008               	return
  2882  06F7                     __end_of_HPstart:	
  2883                           
  2884                           	psect	text8
  2885  0D2F                     __ptext8:	
  2886 ;; *************** function _abs *****************
  2887 ;; Defined at:
  2888 ;;		line 4 in file "G:\Program Files (x86)\Microchip\xc8\v1.37\sources\common\abs.c"
  2889 ;; Parameters:    Size  Location     Type
  2890 ;;  a               2    5[BANK0 ] int 
  2891 ;; Auto vars:     Size  Location     Type
  2892 ;;		None
  2893 ;; Return value:  Size  Location     Type
  2894 ;;                  2    5[BANK0 ] int 
  2895 ;; Registers used:
  2896 ;;		wreg, status,2, status,0
  2897 ;; Tracked objects:
  2898 ;;		On entry : 0/0
  2899 ;;		On exit  : 0/0
  2900 ;;		Unchanged: 0/0
  2901 ;; Data sizes:     COMMON   BANK0   BANK1
  2902 ;;      Params:         0       2       0
  2903 ;;      Locals:         0       0       0
  2904 ;;      Temps:          0       2       0
  2905 ;;      Totals:         0       4       0
  2906 ;;Total ram usage:        4 bytes
  2907 ;; Hardware stack levels used:    1
  2908 ;; Hardware stack levels required when called:    1
  2909 ;; This function calls:
  2910 ;;		Nothing
  2911 ;; This function is called by:
  2912 ;;		_HPstart
  2913 ;; This function uses a non-reentrant model
  2914 ;;
  2915                           
  2916                           
  2917                           ;psect for function _abs
  2918  0D2F                     _abs:	
  2919                           
  2920                           ;incstack = 0
  2921                           ; Regs used in _abs: [wreg+status,2+status,0]
  2922  0D2F  1283               	bcf	3,5	;RP0=0, select bank0
  2923  0D30  1303               	bcf	3,6	;RP1=0, select bank0
  2924  0D31  1FD1               	btfss	abs@a+1,7
  2925  0D32  0008               	return
  2926  0D33  0950               	comf	abs@a,w
  2927  0D34  00D2               	movwf	??_abs
  2928  0D35  0951               	comf	abs@a+1,w
  2929  0D36  00D3               	movwf	??_abs+1
  2930  0D37  0AD2               	incf	??_abs,f
  2931  0D38  1903               	skipnz
  2932  0D39  0AD3               	incf	??_abs+1,f
  2933  0D3A  0852               	movf	??_abs,w
  2934  0D3B  00D0               	movwf	?_abs
  2935  0D3C  0853               	movf	??_abs+1,w
  2936  0D3D  00D1               	movwf	?_abs+1
  2937  0D3E  0008               	return
  2938  0D3F                     __end_of_abs:	
  2939                           
  2940                           	psect	text9
  2941  0030                     __ptext9:	
  2942 ;; *************** function _HPOuUnit *****************
  2943 ;; Defined at:
  2944 ;;		line 63 in file "HPsystem.c"
  2945 ;; Parameters:    Size  Location     Type
  2946 ;;		None
  2947 ;; Auto vars:     Size  Location     Type
  2948 ;;		None
  2949 ;; Return value:  Size  Location     Type
  2950 ;;                  1    wreg      void 
  2951 ;; Registers used:
  2952 ;;		wreg, status,2, status,0, btemp+1, pclath, cstack
  2953 ;; Tracked objects:
  2954 ;;		On entry : 0/0
  2955 ;;		On exit  : 0/0
  2956 ;;		Unchanged: 0/0
  2957 ;; Data sizes:     COMMON   BANK0   BANK1
  2958 ;;      Params:         0       0       0
  2959 ;;      Locals:         0       0       0
  2960 ;;      Temps:          0       1       0
  2961 ;;      Totals:         0       1       0
  2962 ;;Total ram usage:        1 bytes
  2963 ;; Hardware stack levels used:    1
  2964 ;; Hardware stack levels required when called:    2
  2965 ;; This function calls:
  2966 ;;		_HPShut
  2967 ;;		_UART_SendByte
  2968 ;; This function is called by:
  2969 ;;		_HPSystem
  2970 ;; This function uses a non-reentrant model
  2971 ;;
  2972                           
  2973                           
  2974                           ;psect for function _HPOuUnit
  2975  0030                     _HPOuUnit:	
  2976                           
  2977                           ;HPsystem.c: 65: if (Judge.Working==NoWork)
  2978                           
  2979                           ;incstack = 0
  2980                           ; Regs used in _HPOuUnit: [wreg+status,2+status,0+btemp+1+pclath+cstack]
  2981  0030  1283               	bcf	3,5	;RP0=0, select bank0
  2982  0031  1303               	bcf	3,6	;RP1=0, select bank0
  2983  0032  0C39               	rrf	_Judge,w
  2984  0033  00D1               	movwf	??_HPOuUnit
  2985  0034  0C51               	rrf	??_HPOuUnit,w
  2986  0035  3907               	andlw	7
  2987  0036  3A00               	xorlw	0
  2988  0037  1D03               	skipz
  2989  0038  283C               	goto	l1544
  2990                           
  2991                           ;HPsystem.c: 66: {HPShut();}
  2992  0039  158A  26F3         	fcall	_HPShut
  2993  003B  0008               	return
  2994  003C                     l1544:	
  2995                           
  2996                           ;HPsystem.c: 67: else if (Judge.Working)
  2997  003C  1283               	bcf	3,5	;RP0=0, select bank0
  2998  003D  1303               	bcf	3,6	;RP1=0, select bank0
  2999  003E  0C39               	rrf	_Judge,w
  3000  003F  00D1               	movwf	??_HPOuUnit
  3001  0040  0C51               	rrf	??_HPOuUnit,w
  3002  0041  3907               	andlw	7
  3003  0042  3A00               	xorlw	0
  3004  0043  1903               	skipnz
  3005  0044  0008               	return
  3006                           
  3007                           ;HPsystem.c: 68: {
  3008                           ;HPsystem.c: 70: if (Judge.Defog)
  3009  0045  1D3A               	btfss	_Judge+1,2
  3010  0046  289F               	goto	l1582
  3011                           
  3012                           ;HPsystem.c: 71: {UART_SendByte(0xee); UART_SendByte(0xDF);
  3013  0047  30EE               	movlw	238
  3014  0048  158A  2525  118A   	fcall	_UART_SendByte
  3015  004B  30DF               	movlw	223
  3016  004C  158A  2525  118A   	fcall	_UART_SendByte
  3017                           
  3018                           ;HPsystem.c: 73: if (Judge.DefogStop)
  3019  004F  1283               	bcf	3,5	;RP0=0, select bank0
  3020  0050  1303               	bcf	3,6	;RP1=0, select bank0
  3021  0051  1E3A               	btfss	_Judge+1,4
  3022  0052  2865               	goto	l1564
  3023                           
  3024                           ;HPsystem.c: 74: {
  3025                           ;HPsystem.c: 75: if (TM.DefogStop>=30)
  3026  0053  301E               	movlw	30
  3027  0054  0235               	subwf	_TM+5,w
  3028  0055  1C03               	skipc
  3029  0056  285C               	goto	l1560
  3030                           
  3031                           ;HPsystem.c: 76: {
  3032                           ;HPsystem.c: 77: Judge.DefogStop=0;Judge.Defog=0;
  3033  0057  123A               	bcf	_Judge+1,4
  3034  0058  113A               	bcf	_Judge+1,2
  3035                           
  3036                           ;HPsystem.c: 78: TM.DefogStop=0;RelayS.Com=1;
  3037  0059  01B5               	clrf	_TM+5
  3038  005A  1449               	bsf	_RelayS,0
  3039                           
  3040                           ;HPsystem.c: 79: }
  3041  005B  0008               	return
  3042  005C                     l1560:	
  3043                           
  3044                           ;HPsystem.c: 80: else if (TM.DefogStop>=25)
  3045  005C  3019               	movlw	25
  3046  005D  0235               	subwf	_TM+5,w
  3047  005E  1C03               	skipc
  3048  005F  2862               	goto	l161
  3049                           
  3050                           ;HPsystem.c: 81: {RelayS.Fway=0;}
  3051  0060  11C9               	bcf	_RelayS,3
  3052  0061  0008               	return
  3053  0062                     l161:	
  3054                           
  3055                           ;HPsystem.c: 82: else {RelayS.Com=0;RelayS.Fan=1;}
  3056  0062  1049               	bcf	_RelayS,0
  3057  0063  1549               	bsf	_RelayS,2
  3058                           
  3059                           ;HPsystem.c: 83: }
  3060  0064  0008               	return
  3061  0065                     l1564:	
  3062                           
  3063                           ;HPsystem.c: 85: else if (TM.Defoging>4800)
  3064  0065  3012               	movlw	18
  3065  0066  0237               	subwf	_TM+7,w
  3066  0067  30C1               	movlw	193
  3067  0068  1903               	skipnz
  3068  0069  0236               	subwf	_TM+6,w
  3069  006A  1C03               	skipc
  3070  006B  2870               	goto	l1568
  3071                           
  3072                           ;HPsystem.c: 86: {Judge.DefogStop=1;TM.DefogStop=1;}
  3073  006C  163A               	bsf	_Judge+1,4
  3074  006D  01B5               	clrf	_TM+5
  3075  006E  0AB5               	incf	_TM+5,f
  3076  006F  0008               	return
  3077  0070                     l1568:	
  3078                           
  3079                           ;HPsystem.c: 87: else if ((TM.Defoging>120)&&(T[UP]>10))
  3080  0070  3000               	movlw	0
  3081  0071  0237               	subwf	_TM+7,w
  3082  0072  3079               	movlw	121
  3083  0073  1903               	skipnz
  3084  0074  0236               	subwf	_TM+6,w
  3085  0075  1C03               	skipc
  3086  0076  2888               	goto	l1574
  3087  0077  0821               	movf	_T+1,w
  3088  0078  3A80               	xorlw	128
  3089  0079  00FF               	movwf	127
  3090  007A  3080               	movlw	128
  3091  007B  027F               	subwf	127,w
  3092  007C  1D03               	skipz
  3093  007D  2880               	goto	u1685
  3094  007E  300B               	movlw	11
  3095  007F  0220               	subwf	_T,w
  3096  0080                     u1685:	
  3097  0080  1C03               	skipc
  3098  0081  2888               	goto	l1574
  3099                           
  3100                           ;HPsystem.c: 88: {Judge.DefogStop=1;TM.DefogStop=1;}
  3101  0082  1283               	bcf	3,5	;RP0=0, select bank0
  3102  0083  1303               	bcf	3,6	;RP1=0, select bank0
  3103  0084  163A               	bsf	_Judge+1,4
  3104  0085  01B5               	clrf	_TM+5
  3105  0086  0AB5               	incf	_TM+5,f
  3106  0087  0008               	return
  3107  0088                     l1574:	
  3108                           
  3109                           ;HPsystem.c: 90: else if (TM.Defoging>60)
  3110  0088  3000               	movlw	0
  3111  0089  1283               	bcf	3,5	;RP0=0, select bank0
  3112  008A  1303               	bcf	3,6	;RP1=0, select bank0
  3113  008B  0237               	subwf	_TM+7,w
  3114  008C  303D               	movlw	61
  3115  008D  1903               	skipnz
  3116  008E  0236               	subwf	_TM+6,w
  3117  008F  1C03               	skipc
  3118  0090  2893               	goto	l1578
  3119                           
  3120                           ;HPsystem.c: 91: {
  3121                           ;HPsystem.c: 92: RelayS.Com=1;}
  3122  0091  1449               	bsf	_RelayS,0
  3123  0092  0008               	return
  3124  0093                     l1578:	
  3125                           
  3126                           ;HPsystem.c: 93: else if (TM.Defoging>30)
  3127  0093  3000               	movlw	0
  3128  0094  0237               	subwf	_TM+7,w
  3129  0095  301F               	movlw	31
  3130  0096  1903               	skipnz
  3131  0097  0236               	subwf	_TM+6,w
  3132  0098  1C03               	skipc
  3133  0099  289C               	goto	l170
  3134                           
  3135                           ;HPsystem.c: 94: {RelayS.Fway=1;}
  3136  009A  15C9               	bsf	_RelayS,3
  3137  009B  0008               	return
  3138  009C                     l170:	
  3139                           
  3140                           ;HPsystem.c: 95: else {RelayS.Com=0;RelayS.Fan=0;}
  3141  009C  1049               	bcf	_RelayS,0
  3142  009D  1149               	bcf	_RelayS,2
  3143                           
  3144                           ;HPsystem.c: 96: }
  3145  009E  0008               	return
  3146  009F                     l1582:	
  3147                           
  3148                           ;HPsystem.c: 98: else if((TM.ComStop>=120)||(!TM.ComStop))
  3149  009F  3078               	movlw	120
  3150  00A0  0234               	subwf	_TM+4,w
  3151  00A1  1803               	skipnc
  3152  00A2  28A6               	goto	l175
  3153  00A3  0834               	movf	_TM+4,w
  3154  00A4  1D03               	btfss	3,2
  3155  00A5  0008               	return
  3156  00A6                     l175:	
  3157                           
  3158                           ;HPsystem.c: 99: {
  3159                           ;HPsystem.c: 100: RelayS.Fway=0;
  3160  00A6  11C9               	bcf	_RelayS,3
  3161                           
  3162                           ;HPsystem.c: 101: if (TM.DefogScan>=40)
  3163  00A7  0838               	movf	_TM+8,w
  3164  00A8  393F               	andlw	63
  3165  00A9  00D1               	movwf	??_HPOuUnit
  3166  00AA  3028               	movlw	40
  3167  00AB  0251               	subwf	??_HPOuUnit,w
  3168  00AC  1C03               	skipc
  3169  00AD  28CE               	goto	l1596
  3170                           
  3171                           ;HPsystem.c: 102: {
  3172                           ;HPsystem.c: 103: if ((T[UP]<-1)&&(T[E]<2))
  3173  00AE  0821               	movf	_T+1,w
  3174  00AF  3A80               	xorlw	128
  3175  00B0  00FF               	movwf	127
  3176  00B1  307F               	movlw	127
  3177  00B2  027F               	subwf	127,w
  3178  00B3  1D03               	skipz
  3179  00B4  28B7               	goto	u1745
  3180  00B5  30FF               	movlw	255
  3181  00B6  0220               	subwf	_T,w
  3182  00B7                     u1745:	
  3183  00B7  1803               	skipnc
  3184  00B8  0008               	return
  3185  00B9  1283               	bcf	3,5	;RP0=0, select bank0
  3186  00BA  1303               	bcf	3,6	;RP1=0, select bank0
  3187  00BB  0823               	movf	_T+3,w
  3188  00BC  3A80               	xorlw	128
  3189  00BD  00FF               	movwf	127
  3190  00BE  3080               	movlw	128
  3191  00BF  027F               	subwf	127,w
  3192  00C0  1D03               	skipz
  3193  00C1  28C4               	goto	u1755
  3194  00C2  3002               	movlw	2
  3195  00C3  0222               	subwf	_T+2,w
  3196  00C4                     u1755:	
  3197  00C4  1803               	skipnc
  3198  00C5  0008               	return
  3199                           
  3200                           ;HPsystem.c: 104: {Judge.Defog=1;TM.Defoging=1;}
  3201  00C6  1283               	bcf	3,5	;RP0=0, select bank0
  3202  00C7  1303               	bcf	3,6	;RP1=0, select bank0
  3203  00C8  153A               	bsf	_Judge+1,2
  3204  00C9  3001               	movlw	1
  3205  00CA  00B6               	movwf	_TM+6
  3206  00CB  3000               	movlw	0
  3207  00CC  00B7               	movwf	_TM+7
  3208                           
  3209                           ;HPsystem.c: 105: }
  3210  00CD  0008               	return
  3211  00CE                     l1596:	
  3212                           
  3213                           ;HPsystem.c: 106: else if (TM.PumpRun>=30)
  3214  00CE  301E               	movlw	30
  3215  00CF  0230               	subwf	_TM,w
  3216  00D0  1C03               	skipc
  3217  00D1  28E3               	goto	l1610
  3218                           
  3219                           ;HPsystem.c: 107: {
  3220                           ;HPsystem.c: 108: RelayS.Com=1;
  3221  00D2  1449               	bsf	_RelayS,0
  3222                           
  3223                           ;HPsystem.c: 109: if(!TM.ComRun)
  3224  00D3  0833               	movf	_TM+3,w
  3225  00D4  1D03               	btfss	3,2
  3226  00D5  28D8               	goto	l1604
  3227                           
  3228                           ;HPsystem.c: 110: TM.ComRun=1;
  3229  00D6  01B3               	clrf	_TM+3
  3230  00D7  0AB3               	incf	_TM+3,f
  3231  00D8                     l1604:	
  3232                           
  3233                           ;HPsystem.c: 111: TM.ComStop=0;
  3234  00D8  01B4               	clrf	_TM+4
  3235                           
  3236                           ;HPsystem.c: 112: if(!TM.DefogScan)
  3237  00D9  0838               	movf	_TM+8,w
  3238  00DA  393F               	andlw	63
  3239  00DB  3A00               	xorlw	0
  3240  00DC  1D03               	skipz
  3241  00DD  0008               	return
  3242                           
  3243                           ;HPsystem.c: 113: TM.DefogScan=1;
  3244  00DE  0838               	movf	_TM+8,w
  3245  00DF  39C0               	andlw	-64
  3246  00E0  3801               	iorlw	1
  3247  00E1  00B8               	movwf	_TM+8
  3248                           
  3249                           ;HPsystem.c: 114: }
  3250  00E2  0008               	return
  3251  00E3                     l1610:	
  3252                           
  3253                           ;HPsystem.c: 115: else if (TM.PumpRun>=25)
  3254  00E3  3019               	movlw	25
  3255  00E4  0230               	subwf	_TM,w
  3256  00E5  1C03               	skipc
  3257  00E6  28E9               	goto	l183
  3258                           
  3259                           ;HPsystem.c: 116: {RelayS.Fan=1;}
  3260  00E7  1549               	bsf	_RelayS,2
  3261  00E8  0008               	return
  3262  00E9                     l183:	
  3263                           
  3264                           ;HPsystem.c: 117: else
  3265                           ;HPsystem.c: 118: {
  3266                           ;HPsystem.c: 119: RelayS.Pump=1;
  3267  00E9  14C9               	bsf	_RelayS,1
  3268                           
  3269                           ;HPsystem.c: 120: TM.PumpStop=0;
  3270  00EA  01B1               	clrf	_TM+1
  3271  00EB  01B2               	clrf	_TM+2
  3272                           
  3273                           ;HPsystem.c: 121: if (!TM.PumpRun)
  3274  00EC  0830               	movf	_TM,w
  3275  00ED  1D03               	btfss	3,2
  3276  00EE  0008               	return
  3277                           
  3278                           ;HPsystem.c: 122: {TM.PumpRun=1;}
  3279  00EF  01B0               	clrf	_TM
  3280  00F0  0AB0               	incf	_TM,f
  3281  00F1  0008               	return
  3282  00F2                     __end_of_HPOuUnit:	
  3283                           
  3284                           	psect	text10
  3285  0EF3                     __ptext10:	
  3286 ;; *************** function _HPShut *****************
  3287 ;; Defined at:
  3288 ;;		line 127 in file "HPsystem.c"
  3289 ;; Parameters:    Size  Location     Type
  3290 ;;		None
  3291 ;; Auto vars:     Size  Location     Type
  3292 ;;		None
  3293 ;; Return value:  Size  Location     Type
  3294 ;;                  1    wreg      void 
  3295 ;; Registers used:
  3296 ;;		wreg, status,2, status,0, btemp+1
  3297 ;; Tracked objects:
  3298 ;;		On entry : 0/0
  3299 ;;		On exit  : 0/0
  3300 ;;		Unchanged: 0/0
  3301 ;; Data sizes:     COMMON   BANK0   BANK1
  3302 ;;      Params:         0       0       0
  3303 ;;      Locals:         0       0       0
  3304 ;;      Temps:          0       0       0
  3305 ;;      Totals:         0       0       0
  3306 ;;Total ram usage:        0 bytes
  3307 ;; Hardware stack levels used:    1
  3308 ;; Hardware stack levels required when called:    1
  3309 ;; This function calls:
  3310 ;;		Nothing
  3311 ;; This function is called by:
  3312 ;;		_HPOuUnit
  3313 ;; This function uses a non-reentrant model
  3314 ;;
  3315                           
  3316                           
  3317                           ;psect for function _HPShut
  3318  0EF3                     _HPShut:	
  3319                           
  3320                           ;HPsystem.c: 129: if (TM.PumpStop>=360)
  3321                           
  3322                           ;incstack = 0
  3323                           ; Regs used in _HPShut: [wreg+status,2+status,0+btemp+1]
  3324  0EF3  3001               	movlw	1
  3325  0EF4  1283               	bcf	3,5	;RP0=0, select bank0
  3326  0EF5  1303               	bcf	3,6	;RP1=0, select bank0
  3327  0EF6  0232               	subwf	_TM+2,w
  3328  0EF7  3068               	movlw	104
  3329  0EF8  1903               	skipnz
  3330  0EF9  0231               	subwf	_TM+1,w
  3331  0EFA  1C03               	skipc
  3332  0EFB  2F1D               	goto	l1362
  3333                           
  3334                           ;HPsystem.c: 130: {
  3335                           ;HPsystem.c: 132: if (T[E]>1)
  3336  0EFC  0823               	movf	_T+3,w
  3337  0EFD  3A80               	xorlw	128
  3338  0EFE  00FF               	movwf	127
  3339  0EFF  3080               	movlw	128
  3340  0F00  027F               	subwf	127,w
  3341  0F01  1D03               	skipz
  3342  0F02  2F05               	goto	u1125
  3343  0F03  3002               	movlw	2
  3344  0F04  0222               	subwf	_T+2,w
  3345  0F05                     u1125:	
  3346  0F05  1C03               	skipc
  3347  0F06  2F0B               	goto	l190
  3348                           
  3349                           ;HPsystem.c: 133: {TM.PumpStop=1;}
  3350  0F07  3001               	movlw	1
  3351  0F08  1283               	bcf	3,5	;RP0=0, select bank0
  3352  0F09  1303               	bcf	3,6	;RP1=0, select bank0
  3353  0F0A  2F1A               	goto	L3
  3354  0F0B                     l190:	
  3355                           
  3356                           ;HPsystem.c: 134: else
  3357                           ;HPsystem.c: 135: {
  3358                           ;HPsystem.c: 136: RelayS.Pump=1;
  3359  0F0B  1283               	bcf	3,5	;RP0=0, select bank0
  3360  0F0C  1303               	bcf	3,6	;RP1=0, select bank0
  3361  0F0D  14C9               	bsf	_RelayS,1
  3362                           
  3363                           ;HPsystem.c: 137: if (!TM.PumpRun)
  3364  0F0E  0830               	movf	_TM,w
  3365  0F0F  1D03               	btfss	3,2
  3366  0F10  2F14               	goto	l1356
  3367                           
  3368                           ;HPsystem.c: 138: {TM.PumpRun=1;}
  3369  0F11  01B0               	clrf	_TM
  3370  0F12  0AB0               	incf	_TM,f
  3371  0F13  2F1D               	goto	l1362
  3372  0F14                     l1356:	
  3373                           
  3374                           ;HPsystem.c: 139: else if (TM.PumpRun>=60)
  3375  0F14  303C               	movlw	60
  3376  0F15  0230               	subwf	_TM,w
  3377  0F16  1C03               	skipc
  3378  0F17  2F1D               	goto	l1362
  3379                           
  3380                           ;HPsystem.c: 140: {TM.PumpRun=0;TM.PumpStop=1;}
  3381  0F18  01B0               	clrf	_TM
  3382  0F19  3001               	movlw	1
  3383  0F1A                     L3:	
  3384  0F1A  00B1               	movwf	_TM+1
  3385  0F1B  3000               	movlw	0
  3386  0F1C  00B2               	movwf	_TM+2
  3387  0F1D                     l1362:	
  3388                           
  3389                           ;HPsystem.c: 141: }
  3390                           ;HPsystem.c: 142: }
  3391                           ;HPsystem.c: 143: if(TM.ComRun>=120)
  3392  0F1D  3078               	movlw	120
  3393  0F1E  0233               	subwf	_TM+3,w
  3394  0F1F  1C03               	skipc
  3395  0F20  2F30               	goto	l1374
  3396                           
  3397                           ;HPsystem.c: 144: {
  3398                           ;HPsystem.c: 147: RelayS.Com=0;TM.ComRun=0;
  3399  0F21  1049               	bcf	_RelayS,0
  3400  0F22  01B3               	clrf	_TM+3
  3401                           
  3402                           ;HPsystem.c: 148: if(TM.DefogScan)
  3403  0F23  0838               	movf	_TM+8,w
  3404  0F24  393F               	andlw	63
  3405  0F25  3A00               	xorlw	0
  3406  0F26  1903               	skipnz
  3407  0F27  2F2A               	goto	l196
  3408                           
  3409                           ;HPsystem.c: 149: TM.DefogScan=0;
  3410  0F28  30C0               	movlw	-64
  3411  0F29  05B8               	andwf	_TM+8,f
  3412  0F2A                     l196:	
  3413                           
  3414                           ;HPsystem.c: 150: if (!TM.ComStop)
  3415  0F2A  0834               	movf	_TM+4,w
  3416  0F2B  1D03               	btfss	3,2
  3417  0F2C  0008               	return
  3418                           
  3419                           ;HPsystem.c: 151: {TM.ComStop=1;}
  3420  0F2D  01B4               	clrf	_TM+4
  3421  0F2E  0AB4               	incf	_TM+4,f
  3422                           
  3423                           ;HPsystem.c: 153: }
  3424  0F2F  0008               	return
  3425  0F30                     l1374:	
  3426                           
  3427                           ;HPsystem.c: 156: else if (TM.ComStop>=35||(TM.ComRun==0&&TM.ComStop==0))
  3428  0F30  3023               	movlw	35
  3429  0F31  0234               	subwf	_TM+4,w
  3430  0F32  1803               	skipnc
  3431  0F33  2F3A               	goto	l201
  3432  0F34  0833               	movf	_TM+3,w
  3433  0F35  1D03               	btfss	3,2
  3434  0F36  0008               	return
  3435  0F37  0834               	movf	_TM+4,w
  3436  0F38  1D03               	btfss	3,2
  3437  0F39  0008               	return
  3438  0F3A                     l201:	
  3439                           
  3440                           ;HPsystem.c: 157: { RelayS.Pump=0;TM.PumpRun=0;
  3441  0F3A  10C9               	bcf	_RelayS,1
  3442  0F3B  01B0               	clrf	_TM
  3443                           
  3444                           ;HPsystem.c: 158: if (!TM.PumpStop)
  3445  0F3C  0831               	movf	_TM+1,w
  3446  0F3D  0432               	iorwf	_TM+2,w
  3447  0F3E  1D03               	btfss	3,2
  3448  0F3F  2F44               	goto	l202
  3449                           
  3450                           ;HPsystem.c: 159: {TM.PumpStop=1;}
  3451  0F40  3001               	movlw	1
  3452  0F41  00B1               	movwf	_TM+1
  3453  0F42  3000               	movlw	0
  3454  0F43  00B2               	movwf	_TM+2
  3455  0F44                     l202:	
  3456                           
  3457                           ;HPsystem.c: 160: if (TM.ComStop>=40||(TM.ComRun==0&&TM.ComStop==0))
  3458  0F44  3028               	movlw	40
  3459  0F45  0234               	subwf	_TM+4,w
  3460  0F46  1803               	skipnc
  3461  0F47  2F4E               	goto	l205
  3462  0F48  0833               	movf	_TM+3,w
  3463  0F49  1D03               	btfss	3,2
  3464  0F4A  0008               	return
  3465  0F4B  0834               	movf	_TM+4,w
  3466  0F4C  1D03               	btfss	3,2
  3467  0F4D  0008               	return
  3468  0F4E                     l205:	
  3469                           
  3470                           ;HPsystem.c: 162: {
  3471                           ;HPsystem.c: 163: RelayS.Fan=0;
  3472  0F4E  1149               	bcf	_RelayS,2
  3473  0F4F  0008               	return
  3474  0F50                     __end_of_HPShut:	
  3475                           
  3476                           	psect	text11
  3477  06F7                     __ptext11:	
  3478 ;; *************** function _DriveTime *****************
  3479 ;; Defined at:
  3480 ;;		line 64 in file "DriveTime.c"
  3481 ;; Parameters:    Size  Location     Type
  3482 ;;		None
  3483 ;; Auto vars:     Size  Location     Type
  3484 ;;  i               2   17[BANK0 ] int 
  3485 ;; Return value:  Size  Location     Type
  3486 ;;                  1    wreg      void 
  3487 ;; Registers used:
  3488 ;;		wreg, fsr0l, fsr0h, status,2, status,0, btemp+1, pclath, cstack
  3489 ;; Tracked objects:
  3490 ;;		On entry : 0/0
  3491 ;;		On exit  : 0/0
  3492 ;;		Unchanged: 0/0
  3493 ;; Data sizes:     COMMON   BANK0   BANK1
  3494 ;;      Params:         0       0       0
  3495 ;;      Locals:         0       2       0
  3496 ;;      Temps:          0       1       0
  3497 ;;      Totals:         0       3       0
  3498 ;;Total ram usage:        3 bytes
  3499 ;; Hardware stack levels used:    1
  3500 ;; Hardware stack levels required when called:    4
  3501 ;; This function calls:
  3502 ;;		_CountClk
  3503 ;;		_CountMin
  3504 ;;		_DriveEEV
  3505 ;;		_UART_SendByte
  3506 ;; This function is called by:
  3507 ;;		_main
  3508 ;; This function uses a non-reentrant model
  3509 ;;
  3510                           
  3511                           
  3512                           ;psect for function _DriveTime
  3513  06F7                     _DriveTime:	
  3514                           
  3515                           ;DriveTime.c: 66: if (Judge.Interrupt)
  3516                           
  3517                           ;incstack = 0
  3518                           ; Regs used in _DriveTime: [wreg-fsr0h+status,2+status,0+btemp+1+pclath+cstack]
  3519  06F7  1283               	bcf	3,5	;RP0=0, select bank0
  3520  06F8  1303               	bcf	3,6	;RP1=0, select bank0
  3521  06F9  1C39               	btfss	_Judge,0
  3522  06FA  0008               	return
  3523                           
  3524                           ;DriveTime.c: 67: {
  3525                           ;DriveTime.c: 68: Judge.Interrupt=0;
  3526  06FB  1039               	bcf	_Judge,0
  3527                           
  3528                           ;DriveTime.c: 69: InterTimes--;
  3529  06FC  3001               	movlw	1
  3530  06FD  02E2               	subwf	_InterTimes,f
  3531                           
  3532                           ;DriveTime.c: 71: if(InterTimes==31)
  3533  06FE  301F               	movlw	31
  3534  06FF  0662               	xorwf	_InterTimes,w
  3535  0700  1D03               	btfss	3,2
  3536  0701  2F49               	goto	l89
  3537                           
  3538                           ;DriveTime.c: 72: {
  3539                           ;DriveTime.c: 74: RC4=~RC4;
  3540  0702  3010               	movlw	16
  3541  0703  0687               	xorwf	7,f
  3542                           
  3543                           ;DriveTime.c: 75: UART_SendByte(RB7);
  3544  0704  3000               	movlw	0
  3545  0705  1B86               	btfsc	6,7	;volatile
  3546  0706  3001               	movlw	1
  3547  0707  158A  2525  118A   	fcall	_UART_SendByte
  3548                           
  3549                           ;DriveTime.c: 76: UART_SendByte(RB4);
  3550  070A  3000               	movlw	0
  3551  070B  1283               	bcf	3,5	;RP0=0, select bank0
  3552  070C  1303               	bcf	3,6	;RP1=0, select bank0
  3553  070D  1A06               	btfsc	6,4	;volatile
  3554  070E  3001               	movlw	1
  3555  070F  158A  2525  118A   	fcall	_UART_SendByte
  3556                           
  3557                           ;DriveTime.c: 77: UART_SendByte(RB5);
  3558  0712  3000               	movlw	0
  3559  0713  1283               	bcf	3,5	;RP0=0, select bank0
  3560  0714  1303               	bcf	3,6	;RP1=0, select bank0
  3561  0715  1A86               	btfsc	6,5	;volatile
  3562  0716  3001               	movlw	1
  3563  0717  158A  2525  118A   	fcall	_UART_SendByte
  3564                           
  3565                           ;DriveTime.c: 78: UART_SendByte(RB0);
  3566  071A  3000               	movlw	0
  3567  071B  1283               	bcf	3,5	;RP0=0, select bank0
  3568  071C  1303               	bcf	3,6	;RP1=0, select bank0
  3569  071D  1806               	btfsc	6,0	;volatile
  3570  071E  3001               	movlw	1
  3571  071F  158A  2525  118A   	fcall	_UART_SendByte
  3572                           
  3573                           ;DriveTime.c: 79: UART_SendByte(RB1);
  3574  0722  3000               	movlw	0
  3575  0723  1283               	bcf	3,5	;RP0=0, select bank0
  3576  0724  1303               	bcf	3,6	;RP1=0, select bank0
  3577  0725  1886               	btfsc	6,1	;volatile
  3578  0726  3001               	movlw	1
  3579  0727  158A  2525  118A   	fcall	_UART_SendByte
  3580                           
  3581                           ;DriveTime.c: 80: UART_SendByte(RB2);
  3582  072A  3000               	movlw	0
  3583  072B  1283               	bcf	3,5	;RP0=0, select bank0
  3584  072C  1303               	bcf	3,6	;RP1=0, select bank0
  3585  072D  1906               	btfsc	6,2	;volatile
  3586  072E  3001               	movlw	1
  3587  072F  158A  2525  118A   	fcall	_UART_SendByte
  3588                           
  3589                           ;DriveTime.c: 81: UART_SendByte(PORTB);
  3590  0732  1283               	bcf	3,5	;RP0=0, select bank0
  3591  0733  1303               	bcf	3,6	;RP1=0, select bank0
  3592  0734  0806               	movf	6,w	;volatile
  3593  0735  158A  2525  118A   	fcall	_UART_SendByte
  3594                           
  3595                           ;DriveTime.c: 82: UART_SendByte(EEVSTEP);
  3596  0738  1283               	bcf	3,5	;RP0=0, select bank0
  3597  0739  1303               	bcf	3,6	;RP1=0, select bank0
  3598  073A  085F               	movf	_EEVSTEP,w
  3599  073B  158A  2525  118A   	fcall	_UART_SendByte
  3600                           
  3601                           ;DriveTime.c: 83: UART_SendByte(EEVSTEP>>8);
  3602  073E  1283               	bcf	3,5	;RP0=0, select bank0
  3603  073F  1303               	bcf	3,6	;RP1=0, select bank0
  3604  0740  0860               	movf	_EEVSTEP+1,w
  3605  0741  158A  2525  118A   	fcall	_UART_SendByte
  3606                           
  3607                           ;DriveTime.c: 84: UART_SendByte(0xff);
  3608  0744  30FF               	movlw	255
  3609  0745  158A  2525  118A   	fcall	_UART_SendByte
  3610                           
  3611                           ;DriveTime.c: 87: }
  3612  0748  2F51               	goto	l1684
  3613  0749                     l89:	
  3614                           
  3615                           ;DriveTime.c: 88: else if(!RelayS.Com&&(InterTimes==31))RC4=~RC4;
  3616  0749  1849               	btfsc	_RelayS,0
  3617  074A  2F51               	goto	l1684
  3618  074B  301F               	movlw	31
  3619  074C  0662               	xorwf	_InterTimes,w
  3620  074D  1D03               	btfss	3,2
  3621  074E  2F51               	goto	l1684
  3622  074F  3010               	movlw	16
  3623  0750  0687               	xorwf	7,f
  3624  0751                     l1684:	
  3625                           ;DriveTime.c: 90: {
  3626                           
  3627                           
  3628                           ;DriveTime.c: 95: }
  3629                           ;DriveTime.c: 96: if (!InterTimes)
  3630  0751  1283               	bcf	3,5	;RP0=0, select bank0
  3631  0752  1303               	bcf	3,6	;RP1=0, select bank0
  3632  0753  0862               	movf	_InterTimes,w
  3633  0754  1D03               	btfss	3,2
  3634  0755  0008               	return
  3635                           
  3636                           ;DriveTime.c: 97: {
  3637                           ;DriveTime.c: 98: UART_SendByte(0x6d);
  3638  0756  306D               	movlw	109
  3639  0757  158A  2525  118A   	fcall	_UART_SendByte
  3640                           
  3641                           ;DriveTime.c: 99: UART_SendByte(0x6d);
  3642  075A  306D               	movlw	109
  3643  075B  158A  2525  118A   	fcall	_UART_SendByte
  3644                           
  3645                           ;DriveTime.c: 100: for(int i=0;i<=4;i++)
  3646  075E  1283               	bcf	3,5	;RP0=0, select bank0
  3647  075F  1303               	bcf	3,6	;RP1=0, select bank0
  3648  0760  01DC               	clrf	DriveTime@i
  3649  0761  01DD               	clrf	DriveTime@i+1
  3650  0762  085D               	movf	DriveTime@i+1,w
  3651  0763  3A80               	xorlw	128
  3652  0764  00FF               	movwf	127
  3653  0765  3080               	movlw	128
  3654  0766  027F               	subwf	127,w
  3655  0767  1D03               	skipz
  3656  0768  2F6B               	goto	u1945
  3657  0769  3005               	movlw	5
  3658  076A  025C               	subwf	DriveTime@i,w
  3659  076B                     u1945:	
  3660  076B  1803               	btfsc	3,0
  3661  076C  2F8C               	goto	l1700
  3662  076D                     l1694:	
  3663                           
  3664                           ;DriveTime.c: 101: {
  3665                           ;DriveTime.c: 103: UART_SendByte(T[i]);
  3666  076D  1283               	bcf	3,5	;RP0=0, select bank0
  3667  076E  1303               	bcf	3,6	;RP1=0, select bank0
  3668  076F  085C               	movf	DriveTime@i,w
  3669  0770  00DB               	movwf	??_DriveTime
  3670  0771  075B               	addwf	??_DriveTime,w
  3671  0772  3E20               	addlw	(low (_T| 0))& (0+255)
  3672  0773  0084               	movwf	4
  3673  0774  1383               	bcf	3,7	;select IRP bank0
  3674  0775  0800               	movf	0,w
  3675  0776  158A  2525  118A   	fcall	_UART_SendByte
  3676  0779  3001               	movlw	1
  3677  077A  1283               	bcf	3,5	;RP0=0, select bank0
  3678  077B  1303               	bcf	3,6	;RP1=0, select bank0
  3679  077C  07DC               	addwf	DriveTime@i,f
  3680  077D  1803               	skipnc
  3681  077E  0ADD               	incf	DriveTime@i+1,f
  3682  077F  3000               	movlw	0
  3683  0780  07DD               	addwf	DriveTime@i+1,f
  3684  0781  085D               	movf	DriveTime@i+1,w
  3685  0782  3A80               	xorlw	128
  3686  0783  00FF               	movwf	127
  3687  0784  3080               	movlw	128
  3688  0785  027F               	subwf	127,w
  3689  0786  1D03               	skipz
  3690  0787  2F8A               	goto	u1955
  3691  0788  3005               	movlw	5
  3692  0789  025C               	subwf	DriveTime@i,w
  3693  078A                     u1955:	
  3694  078A  1C03               	skipc
  3695  078B  2F6D               	goto	l1694
  3696  078C                     l1700:	
  3697                           
  3698                           ;DriveTime.c: 106: }
  3699                           ;DriveTime.c: 108: UART_SendByte(Judge.Working);
  3700  078C  1283               	bcf	3,5	;RP0=0, select bank0
  3701  078D  1303               	bcf	3,6	;RP1=0, select bank0
  3702  078E  0C39               	rrf	_Judge,w
  3703  078F  00DB               	movwf	??_DriveTime
  3704  0790  0C5B               	rrf	??_DriveTime,w
  3705  0791  3907               	andlw	7
  3706  0792  158A  2525  118A   	fcall	_UART_SendByte
  3707                           
  3708                           ;DriveTime.c: 109: UART_SendByte(SysErr.P6);
  3709  0795  1283               	bcf	3,5	;RP0=0, select bank0
  3710  0796  1303               	bcf	3,6	;RP1=0, select bank0
  3711  0797  0E3B               	swapf	_SysErr,w
  3712  0798  00DB               	movwf	??_DriveTime
  3713  0799  0CDB               	rrf	??_DriveTime,f
  3714  079A  0C5B               	rrf	??_DriveTime,w
  3715  079B  3901               	andlw	1
  3716  079C  158A  2525  118A   	fcall	_UART_SendByte
  3717                           
  3718                           ;DriveTime.c: 112: InterTimes=61;
  3719  079F  303D               	movlw	61
  3720  07A0  1283               	bcf	3,5	;RP0=0, select bank0
  3721  07A1  1303               	bcf	3,6	;RP1=0, select bank0
  3722  07A2  00DB               	movwf	??_DriveTime
  3723  07A3  085B               	movf	??_DriveTime,w
  3724  07A4  00E2               	movwf	_InterTimes
  3725                           
  3726                           ;DriveTime.c: 113: Clock--;
  3727  07A5  3001               	movlw	1
  3728  07A6  02E1               	subwf	_Clock,f
  3729                           
  3730                           ;DriveTime.c: 115: CountClk();
  3731  07A7  158A  25F3  118A   	fcall	_CountClk
  3732                           
  3733                           ;DriveTime.c: 119: if (!Clock)
  3734  07AA  1283               	bcf	3,5	;RP0=0, select bank0
  3735  07AB  1303               	bcf	3,6	;RP1=0, select bank0
  3736  07AC  0861               	movf	_Clock,w
  3737  07AD  1D03               	btfss	3,2
  3738  07AE  0008               	return
  3739                           
  3740                           ;DriveTime.c: 120: {if(RelayS.Com)DriveEEV();
  3741  07AF  1C49               	btfss	_RelayS,0
  3742  07B0  2FB4               	goto	l1714
  3743  07B1  158A  2750  118A   	fcall	_DriveEEV
  3744  07B4                     l1714:	
  3745                           
  3746                           ;DriveTime.c: 121: Clock = 60;Minutes--;
  3747  07B4  303C               	movlw	60
  3748  07B5  1283               	bcf	3,5	;RP0=0, select bank0
  3749  07B6  1303               	bcf	3,6	;RP1=0, select bank0
  3750  07B7  00DB               	movwf	??_DriveTime
  3751  07B8  085B               	movf	??_DriveTime,w
  3752  07B9  00E1               	movwf	_Clock
  3753  07BA  3001               	movlw	1
  3754  07BB  02E3               	subwf	_Minutes,f
  3755                           
  3756                           ;DriveTime.c: 122: CountMin();
  3757  07BC  158A  253F  118A   	fcall	_CountMin
  3758                           
  3759                           ;DriveTime.c: 124: if (!Minutes)
  3760  07BF  1283               	bcf	3,5	;RP0=0, select bank0
  3761  07C0  1303               	bcf	3,6	;RP1=0, select bank0
  3762  07C1  0863               	movf	_Minutes,w
  3763  07C2  1D03               	btfss	3,2
  3764  07C3  0008               	return
  3765                           
  3766                           ;DriveTime.c: 125: {
  3767                           ;DriveTime.c: 126: Minutes = 60;
  3768  07C4  303C               	movlw	60
  3769  07C5  00DB               	movwf	??_DriveTime
  3770  07C6  085B               	movf	??_DriveTime,w
  3771  07C7  00E3               	movwf	_Minutes
  3772  07C8  0008               	return
  3773  07C9                     __end_of_DriveTime:	
  3774                           
  3775                           	psect	text12
  3776  0D25                     __ptext12:	
  3777 ;; *************** function _UART_SendByte *****************
  3778 ;; Defined at:
  3779 ;;		line 63 in file "main.c"
  3780 ;; Parameters:    Size  Location     Type
  3781 ;;  dat             1    wreg     unsigned char 
  3782 ;; Auto vars:     Size  Location     Type
  3783 ;;  dat             1    5[BANK0 ] unsigned char 
  3784 ;; Return value:  Size  Location     Type
  3785 ;;                  1    wreg      void 
  3786 ;; Registers used:
  3787 ;;		wreg
  3788 ;; Tracked objects:
  3789 ;;		On entry : 0/0
  3790 ;;		On exit  : 0/0
  3791 ;;		Unchanged: 0/0
  3792 ;; Data sizes:     COMMON   BANK0   BANK1
  3793 ;;      Params:         0       0       0
  3794 ;;      Locals:         0       1       0
  3795 ;;      Temps:          0       0       0
  3796 ;;      Totals:         0       1       0
  3797 ;;Total ram usage:        1 bytes
  3798 ;; Hardware stack levels used:    1
  3799 ;; Hardware stack levels required when called:    1
  3800 ;; This function calls:
  3801 ;;		Nothing
  3802 ;; This function is called by:
  3803 ;;		_DriveTime
  3804 ;;		_HPstart
  3805 ;;		_HPOuUnit
  3806 ;; This function uses a non-reentrant model
  3807 ;;
  3808                           
  3809                           
  3810                           ;psect for function _UART_SendByte
  3811  0D25                     _UART_SendByte:	
  3812                           
  3813                           ;incstack = 0
  3814                           ; Regs used in _UART_SendByte: [wreg]
  3815                           ;UART_SendByte@dat stored from wreg
  3816  0D25  1283               	bcf	3,5	;RP0=0, select bank0
  3817  0D26  1303               	bcf	3,6	;RP1=0, select bank0
  3818  0D27  00D0               	movwf	UART_SendByte@dat
  3819                           
  3820                           ;main.c: 65: TXREG=dat;
  3821  0D28  0850               	movf	UART_SendByte@dat,w
  3822  0D29  0099               	movwf	25	;volatile
  3823  0D2A                     l354:	
  3824                           ;main.c: 66: while(TRMT==0);
  3825                           
  3826  0D2A  1683               	bsf	3,5	;RP0=1, select bank1
  3827  0D2B  1303               	bcf	3,6	;RP1=0, select bank1
  3828  0D2C  1898               	btfsc	24,1	;volatile
  3829  0D2D  0008               	return
  3830  0D2E  2D2A               	goto	l354
  3831  0D2F                     __end_of_UART_SendByte:	
  3832                           
  3833                           	psect	text13
  3834  0F50                     __ptext13:	
  3835 ;; *************** function _DriveEEV *****************
  3836 ;; Defined at:
  3837 ;;		line 92 in file "eev.c"
  3838 ;; Parameters:    Size  Location     Type
  3839 ;;		None
  3840 ;; Auto vars:     Size  Location     Type
  3841 ;;  x               2   14[BANK0 ] int 
  3842 ;; Return value:  Size  Location     Type
  3843 ;;                  1    wreg      void 
  3844 ;; Registers used:
  3845 ;;		wreg, fsr0l, fsr0h, status,2, status,0, btemp+1, pclath, cstack
  3846 ;; Tracked objects:
  3847 ;;		On entry : 0/0
  3848 ;;		On exit  : 0/0
  3849 ;;		Unchanged: 0/0
  3850 ;; Data sizes:     COMMON   BANK0   BANK1
  3851 ;;      Params:         0       0       0
  3852 ;;      Locals:         0       2       0
  3853 ;;      Temps:          0       2       0
  3854 ;;      Totals:         0       4       0
  3855 ;;Total ram usage:        4 bytes
  3856 ;; Hardware stack levels used:    1
  3857 ;; Hardware stack levels required when called:    3
  3858 ;; This function calls:
  3859 ;;		_delay2ms
  3860 ;;		_eevdriver
  3861 ;; This function is called by:
  3862 ;;		_DriveTime
  3863 ;; This function uses a non-reentrant model
  3864 ;;
  3865                           
  3866                           
  3867                           ;psect for function _DriveEEV
  3868  0F50                     _DriveEEV:	
  3869                           
  3870                           ;eev.c: 94: if((EEVSTEP>160)&&(EEVSTEP<420))
  3871                           
  3872                           ;incstack = 0
  3873                           ; Regs used in _DriveEEV: [wreg-fsr0h+status,2+status,0+btemp+1+pclath+cstack]
  3874  0F50  1283               	bcf	3,5	;RP0=0, select bank0
  3875  0F51  1303               	bcf	3,6	;RP1=0, select bank0
  3876  0F52  0860               	movf	_EEVSTEP+1,w
  3877  0F53  3A80               	xorlw	128
  3878  0F54  00FF               	movwf	127
  3879  0F55  3080               	movlw	128
  3880  0F56  027F               	subwf	127,w
  3881  0F57  1D03               	skipz
  3882  0F58  2F5B               	goto	u1425
  3883  0F59  30A1               	movlw	161
  3884  0F5A  025F               	subwf	_EEVSTEP,w
  3885  0F5B                     u1425:	
  3886  0F5B  1C03               	skipc
  3887  0F5C  0008               	return
  3888  0F5D  1283               	bcf	3,5	;RP0=0, select bank0
  3889  0F5E  1303               	bcf	3,6	;RP1=0, select bank0
  3890  0F5F  0860               	movf	_EEVSTEP+1,w
  3891  0F60  3A80               	xorlw	128
  3892  0F61  00FF               	movwf	127
  3893  0F62  3081               	movlw	129
  3894  0F63  027F               	subwf	127,w
  3895  0F64  1D03               	skipz
  3896  0F65  2F68               	goto	u1435
  3897  0F66  30A4               	movlw	164
  3898  0F67  025F               	subwf	_EEVSTEP,w
  3899  0F68                     u1435:	
  3900  0F68  1803               	skipnc
  3901  0F69  0008               	return
  3902                           
  3903                           ;eev.c: 95: { int x=T[2]-T[0]-5;
  3904  0F6A  1283               	bcf	3,5	;RP0=0, select bank0
  3905  0F6B  1303               	bcf	3,6	;RP1=0, select bank0
  3906  0F6C  0820               	movf	_T,w
  3907  0F6D  3E05               	addlw	5
  3908  0F6E  00D7               	movwf	??_DriveEEV
  3909  0F6F  0821               	movf	_T+1,w
  3910  0F70  1803               	skipnc
  3911  0F71  3E01               	addlw	1
  3912  0F72  3E00               	addlw	0
  3913  0F73  00D8               	movwf	??_DriveEEV+1
  3914  0F74  09D7               	comf	??_DriveEEV,f
  3915  0F75  09D8               	comf	??_DriveEEV+1,f
  3916  0F76  0AD7               	incf	??_DriveEEV,f
  3917  0F77  1903               	skipnz
  3918  0F78  0AD8               	incf	??_DriveEEV+1,f
  3919  0F79  0824               	movf	_T+4,w
  3920  0F7A  0757               	addwf	??_DriveEEV,w
  3921  0F7B  00D9               	movwf	DriveEEV@x
  3922  0F7C  0825               	movf	_T+5,w
  3923  0F7D  1803               	skipnc
  3924  0F7E  0A25               	incf	_T+5,w
  3925  0F7F  0758               	addwf	??_DriveEEV+1,w
  3926  0F80  00DA               	movwf	DriveEEV@x+1
  3927                           
  3928                           ;eev.c: 96: if(x>0)
  3929  0F81  085A               	movf	DriveEEV@x+1,w
  3930  0F82  3A80               	xorlw	128
  3931  0F83  00FF               	movwf	127
  3932  0F84  3080               	movlw	128
  3933  0F85  027F               	subwf	127,w
  3934  0F86  1D03               	skipz
  3935  0F87  2F8A               	goto	u1445
  3936  0F88  3001               	movlw	1
  3937  0F89  0259               	subwf	DriveEEV@x,w
  3938  0F8A                     u1445:	
  3939  0F8A  1803               	btfsc	3,0
  3940  0F8B  2FA7               	goto	l1464
  3941  0F8C  2FAE               	goto	l1466
  3942  0F8D                     l1458:	
  3943                           ;eev.c: 97: for(;!x;x--)
  3944                           
  3945                           
  3946                           ;eev.c: 98: { eevdriver(1);
  3947  0F8D  3001               	movlw	1
  3948  0F8E  1283               	bcf	3,5	;RP0=0, select bank0
  3949  0F8F  1303               	bcf	3,6	;RP1=0, select bank0
  3950  0F90  00D0               	movwf	eevdriver@x
  3951  0F91  3000               	movlw	0
  3952  0F92  00D1               	movwf	eevdriver@x+1
  3953  0F93  158A  2698  158A   	fcall	_eevdriver
  3954                           
  3955                           ;eev.c: 99: delay2ms(8);}
  3956  0F96  3008               	movlw	8
  3957  0F97  1283               	bcf	3,5	;RP0=0, select bank0
  3958  0F98  1303               	bcf	3,6	;RP1=0, select bank0
  3959  0F99  00D0               	movwf	delay2ms@x
  3960  0F9A  3000               	movlw	0
  3961  0F9B  00D1               	movwf	delay2ms@x+1
  3962  0F9C  118A  27C9  158A   	fcall	_delay2ms
  3963  0F9F  30FF               	movlw	255
  3964  0FA0  1283               	bcf	3,5	;RP0=0, select bank0
  3965  0FA1  1303               	bcf	3,6	;RP1=0, select bank0
  3966  0FA2  07D9               	addwf	DriveEEV@x,f
  3967  0FA3  1803               	skipnc
  3968  0FA4  0ADA               	incf	DriveEEV@x+1,f
  3969  0FA5  30FF               	movlw	255
  3970  0FA6  07DA               	addwf	DriveEEV@x+1,f
  3971  0FA7                     l1464:	
  3972  0FA7  1283               	bcf	3,5	;RP0=0, select bank0
  3973  0FA8  1303               	bcf	3,6	;RP1=0, select bank0
  3974  0FA9  0859               	movf	DriveEEV@x,w
  3975  0FAA  045A               	iorwf	DriveEEV@x+1,w
  3976  0FAB  1D03               	btfss	3,2
  3977  0FAC  2FDB               	goto	l1478
  3978  0FAD  2F8D               	goto	l1458
  3979  0FAE                     l1466:	
  3980                           
  3981                           ;eev.c: 100: else if(T[4]<95)
  3982  0FAE  1283               	bcf	3,5	;RP0=0, select bank0
  3983  0FAF  1303               	bcf	3,6	;RP1=0, select bank0
  3984  0FB0  0829               	movf	_T+9,w
  3985  0FB1  3A80               	xorlw	128
  3986  0FB2  00FF               	movwf	127
  3987  0FB3  3080               	movlw	128
  3988  0FB4  027F               	subwf	127,w
  3989  0FB5  1D03               	skipz
  3990  0FB6  2FB9               	goto	u1465
  3991  0FB7  305F               	movlw	95
  3992  0FB8  0228               	subwf	_T+8,w
  3993  0FB9                     u1465:	
  3994  0FB9  1C03               	btfss	3,0
  3995  0FBA  2FD5               	goto	l1476
  3996  0FBB  2FDB               	goto	l1478
  3997  0FBC                     l1470:	
  3998                           ;eev.c: 101: for(;!x;x++)
  3999                           
  4000                           
  4001                           ;eev.c: 102: { eevdriver(0);
  4002  0FBC  3000               	movlw	0
  4003  0FBD  1283               	bcf	3,5	;RP0=0, select bank0
  4004  0FBE  1303               	bcf	3,6	;RP1=0, select bank0
  4005  0FBF  00D0               	movwf	eevdriver@x
  4006  0FC0  00D1               	movwf	eevdriver@x+1
  4007  0FC1  158A  2698  158A   	fcall	_eevdriver
  4008                           
  4009                           ;eev.c: 103: delay2ms(8);}
  4010  0FC4  3008               	movlw	8
  4011  0FC5  1283               	bcf	3,5	;RP0=0, select bank0
  4012  0FC6  1303               	bcf	3,6	;RP1=0, select bank0
  4013  0FC7  00D0               	movwf	delay2ms@x
  4014  0FC8  3000               	movlw	0
  4015  0FC9  00D1               	movwf	delay2ms@x+1
  4016  0FCA  118A  27C9  158A   	fcall	_delay2ms
  4017  0FCD  3001               	movlw	1
  4018  0FCE  1283               	bcf	3,5	;RP0=0, select bank0
  4019  0FCF  1303               	bcf	3,6	;RP1=0, select bank0
  4020  0FD0  07D9               	addwf	DriveEEV@x,f
  4021  0FD1  1803               	skipnc
  4022  0FD2  0ADA               	incf	DriveEEV@x+1,f
  4023  0FD3  3000               	movlw	0
  4024  0FD4  07DA               	addwf	DriveEEV@x+1,f
  4025  0FD5                     l1476:	
  4026  0FD5  1283               	bcf	3,5	;RP0=0, select bank0
  4027  0FD6  1303               	bcf	3,6	;RP1=0, select bank0
  4028  0FD7  0859               	movf	DriveEEV@x,w
  4029  0FD8  045A               	iorwf	DriveEEV@x+1,w
  4030  0FD9  1903               	btfsc	3,2
  4031  0FDA  2FBC               	goto	l1470
  4032  0FDB                     l1478:	
  4033                           
  4034                           ;eev.c: 104: PORTCBIT.LBIT= STEP[stepcount];
  4035  0FDB  1283               	bcf	3,5	;RP0=0, select bank0
  4036  0FDC  1303               	bcf	3,6	;RP1=0, select bank0
  4037  0FDD  0843               	movf	_stepcount,w
  4038  0FDE  00D7               	movwf	??_DriveEEV
  4039  0FDF  0757               	addwf	??_DriveEEV,w
  4040  0FE0  3E04               	addlw	low (_STEP| (0+32768))
  4041  0FE1  0084               	movwf	4
  4042  0FE2  3085               	movlw	high (_STEP| (0+32768))
  4043  0FE3  1803               	skipnc
  4044  0FE4  3E01               	addlw	1
  4045  0FE5  00FF               	movwf	127
  4046  0FE6  118A  2100  158A   	fcall	stringtab
  4047  0FE9  00D8               	movwf	??_DriveEEV+1
  4048  0FEA  0807               	movf	7,w	;volatile
  4049  0FEB  0658               	xorwf	??_DriveEEV+1,w
  4050  0FEC  39F0               	andlw	-16
  4051  0FED  0658               	xorwf	??_DriveEEV+1,w
  4052  0FEE  0087               	movwf	7	;volatile
  4053                           
  4054                           ;eev.c: 106: delay2ms(240);
  4055  0FEF  30F0               	movlw	240
  4056  0FF0  00D0               	movwf	delay2ms@x
  4057  0FF1  3000               	movlw	0
  4058  0FF2  00D1               	movwf	delay2ms@x+1
  4059  0FF3  118A  27C9         	fcall	_delay2ms
  4060                           
  4061                           ;eev.c: 107: PORTCBIT.LBIT=0x0;
  4062  0FF5  30F0               	movlw	-16
  4063  0FF6  1283               	bcf	3,5	;RP0=0, select bank0
  4064  0FF7  1303               	bcf	3,6	;RP1=0, select bank0
  4065  0FF8  0587               	andwf	7,f	;volatile
  4066                           
  4067                           ;eev.c: 108: EEVSTEP+=x;
  4068  0FF9  0859               	movf	DriveEEV@x,w
  4069  0FFA  07DF               	addwf	_EEVSTEP,f
  4070  0FFB  1803               	skipnc
  4071  0FFC  0AE0               	incf	_EEVSTEP+1,f
  4072  0FFD  085A               	movf	DriveEEV@x+1,w
  4073  0FFE  07E0               	addwf	_EEVSTEP+1,f
  4074  0FFF  0008               	return
  4075  1000                     __end_of_DriveEEV:	
  4076                           
  4077                           	psect	text14
  4078  0E98                     __ptext14:	
  4079 ;; *************** function _eevdriver *****************
  4080 ;; Defined at:
  4081 ;;		line 16 in file "eev.c"
  4082 ;; Parameters:    Size  Location     Type
  4083 ;;  x               2    5[BANK0 ] int 
  4084 ;; Auto vars:     Size  Location     Type
  4085 ;;  stepx           2   10[BANK0 ] unsigned int 
  4086 ;; Return value:  Size  Location     Type
  4087 ;;                  1    wreg      void 
  4088 ;; Registers used:
  4089 ;;		wreg, fsr0l, fsr0h, status,2, status,0, btemp+1, pclath
  4090 ;; Tracked objects:
  4091 ;;		On entry : 0/0
  4092 ;;		On exit  : 0/0
  4093 ;;		Unchanged: 0/0
  4094 ;; Data sizes:     COMMON   BANK0   BANK1
  4095 ;;      Params:         0       2       0
  4096 ;;      Locals:         0       2       0
  4097 ;;      Temps:          0       3       0
  4098 ;;      Totals:         0       7       0
  4099 ;;Total ram usage:        7 bytes
  4100 ;; Hardware stack levels used:    2
  4101 ;; Hardware stack levels required when called:    1
  4102 ;; This function calls:
  4103 ;;		Nothing
  4104 ;; This function is called by:
  4105 ;;		_eevinit
  4106 ;;		_DriveEEV
  4107 ;; This function uses a non-reentrant model
  4108 ;;
  4109                           
  4110                           
  4111                           ;psect for function _eevdriver
  4112  0E98                     _eevdriver:	
  4113                           
  4114                           ;incstack = 0
  4115                           ; Regs used in _eevdriver: [wreg-fsr0h+status,2+status,0+btemp+1+pclath]
  4116  0E98  1283               	bcf	3,5	;RP0=0, select bank0
  4117  0E99  1303               	bcf	3,6	;RP1=0, select bank0
  4118  0E9A  01D5               	clrf	eevdriver@stepx
  4119  0E9B  01D6               	clrf	eevdriver@stepx+1
  4120                           
  4121                           ;eev.c: 18: if(x){
  4122  0E9C  0850               	movf	eevdriver@x,w
  4123  0E9D  0451               	iorwf	eevdriver@x+1,w
  4124  0E9E  1903               	btfsc	3,2
  4125  0E9F  2EC8               	goto	l1404
  4126                           
  4127                           ;eev.c: 19: stepx|=STEP[stepcount++];
  4128  0EA0  0843               	movf	_stepcount,w
  4129  0EA1  00D2               	movwf	??_eevdriver
  4130  0EA2  0752               	addwf	??_eevdriver,w
  4131  0EA3  3E04               	addlw	low (_STEP| (0+32768))
  4132  0EA4  0084               	movwf	4
  4133  0EA5  3085               	movlw	high (_STEP| (0+32768))
  4134  0EA6  1803               	skipnc
  4135  0EA7  3E01               	addlw	1
  4136  0EA8  00FF               	movwf	127
  4137  0EA9  118A  2100  158A   	fcall	stringtab
  4138  0EAC  00D3               	movwf	??_eevdriver+1
  4139  0EAD  118A  2100  158A   	fcall	stringtab
  4140  0EB0  00D4               	movwf	??_eevdriver+2
  4141  0EB1  0853               	movf	??_eevdriver+1,w
  4142  0EB2  04D5               	iorwf	eevdriver@stepx,f
  4143  0EB3  0854               	movf	??_eevdriver+2,w
  4144  0EB4  04D6               	iorwf	eevdriver@stepx+1,f
  4145  0EB5  3001               	movlw	1
  4146  0EB6  07C3               	addwf	_stepcount,f
  4147  0EB7  1803               	skipnc
  4148  0EB8  0AC4               	incf	_stepcount+1,f
  4149  0EB9  3000               	movlw	0
  4150  0EBA  07C4               	addwf	_stepcount+1,f
  4151                           
  4152                           ;eev.c: 21: PORTCBIT.LBIT=stepx;
  4153  0EBB  0807               	movf	7,w	;volatile
  4154  0EBC  0655               	xorwf	eevdriver@stepx,w
  4155  0EBD  39F0               	andlw	-16
  4156  0EBE  0655               	xorwf	eevdriver@stepx,w
  4157  0EBF  0087               	movwf	7	;volatile
  4158                           
  4159                           ;eev.c: 22: if(stepcount==8)
  4160  0EC0  3008               	movlw	8
  4161  0EC1  0643               	xorwf	_stepcount,w
  4162  0EC2  0444               	iorwf	_stepcount+1,w
  4163  0EC3  1D03               	btfss	3,2
  4164  0EC4  0008               	return
  4165                           
  4166                           ;eev.c: 23: stepcount=0;
  4167  0EC5  01C3               	clrf	_stepcount
  4168  0EC6  01C4               	clrf	_stepcount+1
  4169                           
  4170                           ;eev.c: 24: }
  4171  0EC7  0008               	return
  4172  0EC8                     l1404:	
  4173                           
  4174                           ;eev.c: 25: else
  4175                           ;eev.c: 26: {stepx|=STEP[stepcount--];
  4176  0EC8  0843               	movf	_stepcount,w
  4177  0EC9  00D2               	movwf	??_eevdriver
  4178  0ECA  0752               	addwf	??_eevdriver,w
  4179  0ECB  3E04               	addlw	low (_STEP| (0+32768))
  4180  0ECC  0084               	movwf	4
  4181  0ECD  3085               	movlw	high (_STEP| (0+32768))
  4182  0ECE  1803               	skipnc
  4183  0ECF  3E01               	addlw	1
  4184  0ED0  00FF               	movwf	127
  4185  0ED1  118A  2100  158A   	fcall	stringtab
  4186  0ED4  00D3               	movwf	??_eevdriver+1
  4187  0ED5  118A  2100  158A   	fcall	stringtab
  4188  0ED8  00D4               	movwf	??_eevdriver+2
  4189  0ED9  0853               	movf	??_eevdriver+1,w
  4190  0EDA  04D5               	iorwf	eevdriver@stepx,f
  4191  0EDB  0854               	movf	??_eevdriver+2,w
  4192  0EDC  04D6               	iorwf	eevdriver@stepx+1,f
  4193  0EDD  30FF               	movlw	255
  4194  0EDE  07C3               	addwf	_stepcount,f
  4195  0EDF  1803               	skipnc
  4196  0EE0  0AC4               	incf	_stepcount+1,f
  4197  0EE1  30FF               	movlw	255
  4198  0EE2  07C4               	addwf	_stepcount+1,f
  4199                           
  4200                           ;eev.c: 27: PORTCBIT.LBIT=stepx;
  4201  0EE3  0807               	movf	7,w	;volatile
  4202  0EE4  0655               	xorwf	eevdriver@stepx,w
  4203  0EE5  39F0               	andlw	-16
  4204  0EE6  0655               	xorwf	eevdriver@stepx,w
  4205  0EE7  0087               	movwf	7	;volatile
  4206                           
  4207                           ;eev.c: 28: if(stepcount==-1)
  4208  0EE8  0A43               	incf	_stepcount,w
  4209  0EE9  1D03               	skipz
  4210  0EEA  0008               	return
  4211  0EEB  0A44               	incf	_stepcount+1,w
  4212  0EEC  1D03               	btfss	3,2
  4213  0EED  0008               	return
  4214                           
  4215                           ;eev.c: 29: stepcount=7;
  4216  0EEE  3007               	movlw	7
  4217  0EEF  00C3               	movwf	_stepcount
  4218  0EF0  3000               	movlw	0
  4219  0EF1  00C4               	movwf	_stepcount+1
  4220  0EF2  0008               	return
  4221  0EF3                     __end_of_eevdriver:	
  4222                           
  4223                           	psect	text15
  4224  07C9                     __ptext15:	
  4225 ;; *************** function _delay2ms *****************
  4226 ;; Defined at:
  4227 ;;		line 120 in file "main.c"
  4228 ;; Parameters:    Size  Location     Type
  4229 ;;  x               2    5[BANK0 ] unsigned int 
  4230 ;; Auto vars:     Size  Location     Type
  4231 ;;  b               2    9[BANK0 ] unsigned int 
  4232 ;;  a               2    7[BANK0 ] unsigned int 
  4233 ;; Return value:  Size  Location     Type
  4234 ;;                  1    wreg      void 
  4235 ;; Registers used:
  4236 ;;		wreg, status,2, status,0
  4237 ;; Tracked objects:
  4238 ;;		On entry : 0/0
  4239 ;;		On exit  : 0/0
  4240 ;;		Unchanged: 0/0
  4241 ;; Data sizes:     COMMON   BANK0   BANK1
  4242 ;;      Params:         0       2       0
  4243 ;;      Locals:         0       4       0
  4244 ;;      Temps:          0       0       0
  4245 ;;      Totals:         0       6       0
  4246 ;;Total ram usage:        6 bytes
  4247 ;; Hardware stack levels used:    1
  4248 ;; Hardware stack levels required when called:    1
  4249 ;; This function calls:
  4250 ;;		Nothing
  4251 ;; This function is called by:
  4252 ;;		_HPstart
  4253 ;;		_eevinit
  4254 ;;		_DriveEEV
  4255 ;;		_ADC
  4256 ;; This function uses a non-reentrant model
  4257 ;;
  4258                           
  4259                           
  4260                           ;psect for function _delay2ms
  4261  07C9                     _delay2ms:	
  4262                           
  4263                           ;main.c: 122: unsigned int a,b;
  4264                           ;main.c: 123: for(a=x; a>0; a--)
  4265                           
  4266                           ;incstack = 0
  4267                           ; Regs used in _delay2ms: [wreg+status,2+status,0]
  4268  07C9  1283               	bcf	3,5	;RP0=0, select bank0
  4269  07CA  1303               	bcf	3,6	;RP1=0, select bank0
  4270  07CB  0851               	movf	delay2ms@x+1,w
  4271  07CC  00D3               	movwf	delay2ms@a+1
  4272  07CD  0850               	movf	delay2ms@x,w
  4273  07CE  00D2               	movwf	delay2ms@a
  4274  07CF                     L4:	
  4275  07CF  0852               	movf	delay2ms@a,w
  4276  07D0  0453               	iorwf	delay2ms@a+1,w
  4277  07D1  1903               	btfsc	3,2
  4278  07D2  0008               	return
  4279                           
  4280                           ;main.c: 124: for(b=152; b>0; b--);
  4281  07D3  3098               	movlw	152
  4282  07D4  00D4               	movwf	delay2ms@b
  4283  07D5  3000               	movlw	0
  4284  07D6  00D5               	movwf	delay2ms@b+1
  4285  07D7  0854               	movf	delay2ms@b,w
  4286  07D8  0455               	iorwf	delay2ms@b+1,w
  4287  07D9  1903               	btfsc	3,2
  4288  07DA  2FE5               	goto	l1342
  4289  07DB                     l1338:	
  4290  07DB  3001               	movlw	1
  4291  07DC  02D4               	subwf	delay2ms@b,f
  4292  07DD  3000               	movlw	0
  4293  07DE  1C03               	skipc
  4294  07DF  03D5               	decf	delay2ms@b+1,f
  4295  07E0  02D5               	subwf	delay2ms@b+1,f
  4296  07E1  0854               	movf	delay2ms@b,w
  4297  07E2  0455               	iorwf	delay2ms@b+1,w
  4298  07E3  1D03               	btfss	3,2
  4299  07E4  2FDB               	goto	l1338
  4300  07E5                     l1342:	
  4301  07E5  3001               	movlw	1
  4302  07E6  02D2               	subwf	delay2ms@a,f
  4303  07E7  3000               	movlw	0
  4304  07E8  1C03               	skipc
  4305  07E9  03D3               	decf	delay2ms@a+1,f
  4306  07EA  02D3               	subwf	delay2ms@a+1,f
  4307  07EB  2FCF               	goto	L4
  4308  07EC                     __end_of_delay2ms:	
  4309                           
  4310                           	psect	text16
  4311  0D3F                     __ptext16:	
  4312 ;; *************** function _CountMin *****************
  4313 ;; Defined at:
  4314 ;;		line 53 in file "DriveTime.c"
  4315 ;; Parameters:    Size  Location     Type
  4316 ;;		None
  4317 ;; Auto vars:     Size  Location     Type
  4318 ;;		None
  4319 ;; Return value:  Size  Location     Type
  4320 ;;                  1    wreg      void 
  4321 ;; Registers used:
  4322 ;;		wreg, status,2, status,0
  4323 ;; Tracked objects:
  4324 ;;		On entry : 0/0
  4325 ;;		On exit  : 0/0
  4326 ;;		Unchanged: 0/0
  4327 ;; Data sizes:     COMMON   BANK0   BANK1
  4328 ;;      Params:         0       0       0
  4329 ;;      Locals:         0       0       0
  4330 ;;      Temps:          0       1       0
  4331 ;;      Totals:         0       1       0
  4332 ;;Total ram usage:        1 bytes
  4333 ;; Hardware stack levels used:    1
  4334 ;; Hardware stack levels required when called:    1
  4335 ;; This function calls:
  4336 ;;		Nothing
  4337 ;; This function is called by:
  4338 ;;		_DriveTime
  4339 ;; This function uses a non-reentrant model
  4340 ;;
  4341                           
  4342                           
  4343                           ;psect for function _CountMin
  4344  0D3F                     _CountMin:	
  4345                           
  4346                           ;DriveTime.c: 62: if ((0<TM.DefogScan)&&(TM.DefogScan<40)) {TM.DefogScan++;}
  4347                           
  4348                           ;incstack = 0
  4349                           ; Regs used in _CountMin: [wreg+status,2+status,0]
  4350  0D3F  1283               	bcf	3,5	;RP0=0, select bank0
  4351  0D40  1303               	bcf	3,6	;RP1=0, select bank0
  4352  0D41  0838               	movf	_TM+8,w
  4353  0D42  393F               	andlw	63
  4354  0D43  3A00               	xorlw	0
  4355  0D44  1903               	skipnz
  4356  0D45  0008               	return
  4357  0D46  0838               	movf	_TM+8,w
  4358  0D47  393F               	andlw	63
  4359  0D48  00D0               	movwf	??_CountMin
  4360  0D49  3028               	movlw	40
  4361  0D4A  0250               	subwf	??_CountMin,w
  4362  0D4B  1803               	skipnc
  4363  0D4C  0008               	return
  4364  0D4D  0838               	movf	_TM+8,w
  4365  0D4E  393F               	andlw	63
  4366  0D4F  00D0               	movwf	??_CountMin
  4367  0D50  0AD0               	incf	??_CountMin,f
  4368  0D51  0838               	movf	_TM+8,w
  4369  0D52  0650               	xorwf	??_CountMin,w
  4370  0D53  39C0               	andlw	-64
  4371  0D54  0650               	xorwf	??_CountMin,w
  4372  0D55  00B8               	movwf	_TM+8
  4373  0D56  0008               	return
  4374  0D57                     __end_of_CountMin:	
  4375                           
  4376                           	psect	text17
  4377  0DF3                     __ptext17:	
  4378 ;; *************** function _CountClk *****************
  4379 ;; Defined at:
  4380 ;;		line 39 in file "DriveTime.c"
  4381 ;; Parameters:    Size  Location     Type
  4382 ;;		None
  4383 ;; Auto vars:     Size  Location     Type
  4384 ;;		None
  4385 ;; Return value:  Size  Location     Type
  4386 ;;                  1    wreg      void 
  4387 ;; Registers used:
  4388 ;;		wreg, status,2, status,0
  4389 ;; Tracked objects:
  4390 ;;		On entry : 0/0
  4391 ;;		On exit  : 0/0
  4392 ;;		Unchanged: 0/0
  4393 ;; Data sizes:     COMMON   BANK0   BANK1
  4394 ;;      Params:         0       0       0
  4395 ;;      Locals:         0       0       0
  4396 ;;      Temps:          0       1       0
  4397 ;;      Totals:         0       1       0
  4398 ;;Total ram usage:        1 bytes
  4399 ;; Hardware stack levels used:    1
  4400 ;; Hardware stack levels required when called:    1
  4401 ;; This function calls:
  4402 ;;		Nothing
  4403 ;; This function is called by:
  4404 ;;		_DriveTime
  4405 ;; This function uses a non-reentrant model
  4406 ;;
  4407                           
  4408                           
  4409                           ;psect for function _CountClk
  4410  0DF3                     _CountClk:	
  4411                           
  4412                           ;DriveTime.c: 44: if ((0<TM.PumpRun)&&(TM.PumpRun<30)) {TM.PumpRun++;}
  4413                           
  4414                           ;incstack = 0
  4415                           ; Regs used in _CountClk: [wreg+status,2+status,0]
  4416  0DF3  1283               	bcf	3,5	;RP0=0, select bank0
  4417  0DF4  1303               	bcf	3,6	;RP1=0, select bank0
  4418  0DF5  0830               	movf	_TM,w
  4419  0DF6  1903               	btfsc	3,2
  4420  0DF7  2E00               	goto	l75
  4421  0DF8  301E               	movlw	30
  4422  0DF9  0230               	subwf	_TM,w
  4423  0DFA  1803               	skipnc
  4424  0DFB  2E00               	goto	l75
  4425  0DFC  3001               	movlw	1
  4426  0DFD  00D0               	movwf	??_CountClk
  4427  0DFE  0850               	movf	??_CountClk,w
  4428  0DFF  07B0               	addwf	_TM,f
  4429  0E00                     l75:	
  4430                           
  4431                           ;DriveTime.c: 45: if ((0<TM.PumpStop)&&(TM.PumpStop<360)) {TM.PumpStop++;}
  4432  0E00  0831               	movf	_TM+1,w
  4433  0E01  0432               	iorwf	_TM+2,w
  4434  0E02  1903               	btfsc	3,2
  4435  0E03  2E11               	goto	l1424
  4436  0E04  3001               	movlw	1
  4437  0E05  0232               	subwf	_TM+2,w
  4438  0E06  3068               	movlw	104
  4439  0E07  1903               	skipnz
  4440  0E08  0231               	subwf	_TM+1,w
  4441  0E09  1803               	skipnc
  4442  0E0A  2E11               	goto	l1424
  4443  0E0B  3001               	movlw	1
  4444  0E0C  07B1               	addwf	_TM+1,f
  4445  0E0D  1803               	skipnc
  4446  0E0E  0AB2               	incf	_TM+2,f
  4447  0E0F  3000               	movlw	0
  4448  0E10  07B2               	addwf	_TM+2,f
  4449  0E11                     l1424:	
  4450                           
  4451                           ;DriveTime.c: 46: if ((0<TM.ComRun)&&(TM.ComRun<120)) {TM.ComRun++;}
  4452  0E11  0833               	movf	_TM+3,w
  4453  0E12  1903               	btfsc	3,2
  4454  0E13  2E1C               	goto	l77
  4455  0E14  3078               	movlw	120
  4456  0E15  0233               	subwf	_TM+3,w
  4457  0E16  1803               	skipnc
  4458  0E17  2E1C               	goto	l77
  4459  0E18  3001               	movlw	1
  4460  0E19  00D0               	movwf	??_CountClk
  4461  0E1A  0850               	movf	??_CountClk,w
  4462  0E1B  07B3               	addwf	_TM+3,f
  4463  0E1C                     l77:	
  4464                           
  4465                           ;DriveTime.c: 47: if ((0<TM.ComStop)&&(TM.ComStop<180)) {TM.ComStop++;}
  4466  0E1C  0834               	movf	_TM+4,w
  4467  0E1D  1903               	btfsc	3,2
  4468  0E1E  2E27               	goto	l78
  4469  0E1F  30B4               	movlw	180
  4470  0E20  0234               	subwf	_TM+4,w
  4471  0E21  1803               	skipnc
  4472  0E22  2E27               	goto	l78
  4473  0E23  3001               	movlw	1
  4474  0E24  00D0               	movwf	??_CountClk
  4475  0E25  0850               	movf	??_CountClk,w
  4476  0E26  07B4               	addwf	_TM+4,f
  4477  0E27                     l78:	
  4478                           
  4479                           ;DriveTime.c: 50: if ((0<TM.DefogStop)&&(TM.DefogStop<30)) {TM.DefogStop++;}
  4480  0E27  0835               	movf	_TM+5,w
  4481  0E28  1903               	btfsc	3,2
  4482  0E29  2E32               	goto	l79
  4483  0E2A  301E               	movlw	30
  4484  0E2B  0235               	subwf	_TM+5,w
  4485  0E2C  1803               	skipnc
  4486  0E2D  2E32               	goto	l79
  4487  0E2E  3001               	movlw	1
  4488  0E2F  00D0               	movwf	??_CountClk
  4489  0E30  0850               	movf	??_CountClk,w
  4490  0E31  07B5               	addwf	_TM+5,f
  4491  0E32                     l79:	
  4492                           
  4493                           ;DriveTime.c: 51: if ((0<TM.Defoging)&&(TM.Defoging<4800)){TM.DefogStop++;}
  4494  0E32  0836               	movf	_TM+6,w
  4495  0E33  0437               	iorwf	_TM+7,w
  4496  0E34  1903               	btfsc	3,2
  4497  0E35  0008               	return
  4498  0E36  3012               	movlw	18
  4499  0E37  0237               	subwf	_TM+7,w
  4500  0E38  30C0               	movlw	192
  4501  0E39  1903               	skipnz
  4502  0E3A  0236               	subwf	_TM+6,w
  4503  0E3B  1803               	skipnc
  4504  0E3C  0008               	return
  4505  0E3D  3001               	movlw	1
  4506  0E3E  00D0               	movwf	??_CountClk
  4507  0E3F  0850               	movf	??_CountClk,w
  4508  0E40  07B5               	addwf	_TM+5,f
  4509  0E41  0008               	return
  4510  0E42                     __end_of_CountClk:	
  4511                           
  4512                           	psect	text18
  4513  0D71                     __ptext18:	
  4514 ;; *************** function _DriveRelay *****************
  4515 ;; Defined at:
  4516 ;;		line 19 in file "DriveRelay.c"
  4517 ;; Parameters:    Size  Location     Type
  4518 ;;		None
  4519 ;; Auto vars:     Size  Location     Type
  4520 ;;		None
  4521 ;; Return value:  Size  Location     Type
  4522 ;;                  1    wreg      void 
  4523 ;; Registers used:
  4524 ;;		None
  4525 ;; Tracked objects:
  4526 ;;		On entry : 0/0
  4527 ;;		On exit  : 0/0
  4528 ;;		Unchanged: 0/0
  4529 ;; Data sizes:     COMMON   BANK0   BANK1
  4530 ;;      Params:         0       0       0
  4531 ;;      Locals:         0       0       0
  4532 ;;      Temps:          0       0       0
  4533 ;;      Totals:         0       0       0
  4534 ;;Total ram usage:        0 bytes
  4535 ;; Hardware stack levels used:    1
  4536 ;; Hardware stack levels required when called:    1
  4537 ;; This function calls:
  4538 ;;		Nothing
  4539 ;; This function is called by:
  4540 ;;		_main
  4541 ;; This function uses a non-reentrant model
  4542 ;;
  4543                           
  4544                           
  4545                           ;psect for function _DriveRelay
  4546  0D71                     _DriveRelay:	
  4547                           
  4548                           ;DriveRelay.c: 21: if(RelayS.Com){if(RB7==0)RB7=1;}
  4549                           
  4550                           ;incstack = 0
  4551                           ; Regs used in _DriveRelay: []
  4552  0D71  1283               	bcf	3,5	;RP0=0, select bank0
  4553  0D72  1303               	bcf	3,6	;RP1=0, select bank0
  4554  0D73  1C49               	btfss	_RelayS,0
  4555  0D74  2D79               	goto	l19
  4556  0D75  1B86               	btfsc	6,7	;volatile
  4557  0D76  2D7A               	goto	l21
  4558  0D77  1786               	bsf	6,7	;volatile
  4559  0D78  2D7A               	goto	l21
  4560  0D79                     l19:	
  4561                           
  4562                           ;DriveRelay.c: 22: else {RB7=0;}
  4563  0D79  1386               	bcf	6,7	;volatile
  4564  0D7A                     l21:	
  4565                           
  4566                           ;DriveRelay.c: 23: if(RelayS.Pump){RB4=1;}
  4567  0D7A  1CC9               	btfss	_RelayS,1
  4568  0D7B  2D7E               	goto	l22
  4569  0D7C  1606               	bsf	6,4	;volatile
  4570  0D7D  2D7F               	goto	l23
  4571  0D7E                     l22:	
  4572                           
  4573                           ;DriveRelay.c: 24: else {RB4=0;}
  4574  0D7E  1206               	bcf	6,4	;volatile
  4575  0D7F                     l23:	
  4576                           
  4577                           ;DriveRelay.c: 25: if(RelayS.Fan){if(RB5==0)RB5=1;}
  4578  0D7F  1D49               	btfss	_RelayS,2
  4579  0D80  2D85               	goto	l24
  4580  0D81  1A86               	btfsc	6,5	;volatile
  4581  0D82  2D86               	goto	l26
  4582  0D83  1686               	bsf	6,5	;volatile
  4583  0D84  2D86               	goto	l26
  4584  0D85                     l24:	
  4585                           
  4586                           ;DriveRelay.c: 26: else {RB5=0;}
  4587  0D85  1286               	bcf	6,5	;volatile
  4588  0D86                     l26:	
  4589                           
  4590                           ;DriveRelay.c: 27: if(RelayS.Fway){if(RB6==0)RB6=1;}
  4591  0D86  1DC9               	btfss	_RelayS,3
  4592  0D87  2D8C               	goto	l27
  4593  0D88  1B06               	btfsc	6,6	;volatile
  4594  0D89  0008               	return
  4595  0D8A  1706               	bsf	6,6	;volatile
  4596  0D8B  0008               	return
  4597  0D8C                     l27:	
  4598                           
  4599                           ;DriveRelay.c: 28: else {RB6=0;}
  4600  0D8C  1306               	bcf	6,6	;volatile
  4601  0D8D  0008               	return
  4602  0D8E                     __end_of_DriveRelay:	
  4603                           
  4604                           	psect	text19
  4605  0D57                     __ptext19:	
  4606 ;; *************** function _ISR *****************
  4607 ;; Defined at:
  4608 ;;		line 96 in file "main.c"
  4609 ;; Parameters:    Size  Location     Type
  4610 ;;		None
  4611 ;; Auto vars:     Size  Location     Type
  4612 ;;		None
  4613 ;; Return value:  Size  Location     Type
  4614 ;;                  1    wreg      void 
  4615 ;; Registers used:
  4616 ;;		wreg, status,2, status,0
  4617 ;; Tracked objects:
  4618 ;;		On entry : 0/0
  4619 ;;		On exit  : 0/0
  4620 ;;		Unchanged: 0/0
  4621 ;; Data sizes:     COMMON   BANK0   BANK1
  4622 ;;      Params:         0       0       0
  4623 ;;      Locals:         0       0       0
  4624 ;;      Temps:          0       5       0
  4625 ;;      Totals:         0       5       0
  4626 ;;Total ram usage:        5 bytes
  4627 ;; Hardware stack levels used:    1
  4628 ;; This function calls:
  4629 ;;		Nothing
  4630 ;; This function is called by:
  4631 ;;		Interrupt level 1
  4632 ;; This function uses a non-reentrant model
  4633 ;;
  4634                           
  4635                           
  4636                           ;psect for function _ISR
  4637  0D57                     _ISR:	
  4638                           
  4639                           ;main.c: 99: if(TMR0IF==1)
  4640  0D57  1D0B               	btfss	11,2	;volatile
  4641  0D58  2D66               	goto	i1l371
  4642                           
  4643                           ;main.c: 100: {
  4644                           ;main.c: 101: TMR0=0x0e;
  4645  0D59  300E               	movlw	14
  4646  0D5A  0081               	movwf	1	;volatile
  4647                           
  4648                           ;main.c: 103: if(temp1>68)
  4649  0D5B  3045               	movlw	69
  4650  0D5C  024A               	subwf	_temp1,w
  4651  0D5D  1C03               	skipc
  4652  0D5E  2D61               	goto	i1l1808
  4653                           
  4654                           ;main.c: 104: {
  4655                           ;main.c: 105: Judge.Interrupt=1;
  4656  0D5F  1439               	bsf	_Judge,0
  4657                           
  4658                           ;main.c: 106: temp1=0;
  4659  0D60  01CA               	clrf	_temp1
  4660  0D61                     i1l1808:	
  4661                           
  4662                           ;main.c: 108: }
  4663                           ;main.c: 109: temp1++;
  4664  0D61  3001               	movlw	1
  4665  0D62  00CB               	movwf	??_ISR
  4666  0D63  084B               	movf	??_ISR,w
  4667  0D64  07CA               	addwf	_temp1,f
  4668                           
  4669                           ;main.c: 110: TMR0IF=0;
  4670  0D65  110B               	bcf	11,2	;volatile
  4671  0D66                     i1l371:	
  4672  0D66  084F               	movf	??_ISR+4,w
  4673  0D67  00FF               	movwf	127
  4674  0D68  084E               	movf	??_ISR+3,w
  4675  0D69  008A               	movwf	10
  4676  0D6A  084D               	movf	??_ISR+2,w
  4677  0D6B  0084               	movwf	4
  4678  0D6C  0E4C               	swapf	(??_ISR+1)^0,w
  4679  0D6D  0083               	movwf	3
  4680  0D6E  0EFE               	swapf	126,f
  4681  0D6F  0E7E               	swapf	126,w
  4682  0D70  0009               	retfie
  4683  0D71                     __end_of_ISR:	
  4684  007E                     btemp	set	126	;btemp
  4685  007E                     wtemp	set	126
  4686  007E                     wtemp0	set	126
  4687  0080                     wtemp1	set	128
  4688  0082                     wtemp2	set	130
  4689  0084                     wtemp3	set	132
  4690  0086                     wtemp4	set	134
  4691  0088                     wtemp5	set	136
  4692  007F                     wtemp6	set	127
  4693  007E                     ttemp	set	126
  4694  007E                     ttemp0	set	126
  4695  0081                     ttemp1	set	129
  4696  0084                     ttemp2	set	132
  4697  0087                     ttemp3	set	135
  4698  007F                     ttemp4	set	127
  4699  007E                     ltemp	set	126
  4700  007E                     ltemp0	set	126
  4701  0082                     ltemp1	set	130
  4702  0086                     ltemp2	set	134
  4703  0080                     ltemp3	set	128
  4704                           
  4705                           	psect	intentry
  4706  0004                     __pintentry:	
  4707                           ;incstack = 0
  4708                           ; Regs used in _ISR: [wreg+status,2+status,0]
  4709                           
  4710  0004                     interrupt_function:	
  4711  007E                     saved_w	set	btemp
  4712  0004  00FE               	movwf	btemp
  4713  0005  0E03               	swapf	3,w
  4714  0006  1283               	bcf	3,5	;RP0=0, select bank0
  4715  0007  1303               	bcf	3,6	;RP1=0, select bank0
  4716  0008  00CC               	movwf	??_ISR+1
  4717  0009  0804               	movf	4,w
  4718  000A  00CD               	movwf	??_ISR+2
  4719  000B  080A               	movf	10,w
  4720  000C  00CE               	movwf	??_ISR+3
  4721  000D  087F               	movf	btemp+1,w
  4722  000E  00CF               	movwf	??_ISR+4
  4723  000F  158A  2D57         	ljmp	_ISR


Data Sizes:
    Strings     0
    Constant    1026
    Data        5
    BSS         43
    Persistent  0
    Stack       0

Auto Spaces:
    Space          Size  Autos    Used
    COMMON            0      0       0
    BANK0            94     20      68
    BANK1            94      0       0

Pointer List with Targets:

    None.

Critical Paths under _main in COMMON

    None.

Critical Paths under _ISR in COMMON

    None.

Critical Paths under _main in BANK0

    _main->_TEMPADC
    _eevinit->_eevdriver
    _TEMPADC->_ADC
    _ADC->_delay2ms
    _HPSystem->_HPstart
    _HPstart->_delay2ms
    _HPOuUnit->_UART_SendByte
    _DriveTime->_DriveEEV
    _DriveEEV->_eevdriver

Critical Paths under _ISR in BANK0

    None.

Critical Paths under _main in BANK1

    None.

Critical Paths under _ISR in BANK1

    None.

Call Graph Tables:

 ---------------------------------------------------------------------------------
 (Depth) Function   	        Calls       Base Space   Used Autos Params    Refs
 ---------------------------------------------------------------------------------
 (0) _main                                                 0     0      0    3648
                         _DriveRelay
                          _DriveTime
                           _HPSystem
                            _TEMPADC
                            _eevinit
                        _serial_init
                        _timer0_init
 ---------------------------------------------------------------------------------
 (1) _timer0_init                                          0     0      0       0
 ---------------------------------------------------------------------------------
 (1) _serial_init                                          0     0      0       0
 ---------------------------------------------------------------------------------
 (1) _eevinit                                              7     7      0     986
                                             12 BANK0      7     7      0
                           _delay2ms
                          _eevdriver
 ---------------------------------------------------------------------------------
 (1) _TEMPADC                                              6     6      0     741
                                             14 BANK0      6     6      0
                                _ADC
 ---------------------------------------------------------------------------------
 (2) _ADC                                                  3     1      2     695
                                             11 BANK0      3     1      2
                           _delay2ms
 ---------------------------------------------------------------------------------
 (1) _HPSystem                                             0     0      0     826
                           _HPOuUnit
                            _HPstart
 ---------------------------------------------------------------------------------
 (2) _HPstart                                              2     2      0     804
                                             11 BANK0      2     2      0
                      _UART_SendByte
                                _abs
                           _delay2ms
 ---------------------------------------------------------------------------------
 (3) _abs                                                  4     2      2     152
                                              5 BANK0      4     2      2
 ---------------------------------------------------------------------------------
 (2) _HPOuUnit                                             1     1      0      22
                                              6 BANK0      1     1      0
                             _HPShut
                      _UART_SendByte
 ---------------------------------------------------------------------------------
 (3) _HPShut                                               0     0      0       0
 ---------------------------------------------------------------------------------
 (1) _DriveTime                                            3     3      0    1095
                                             16 BANK0      3     3      0
                           _CountClk
                           _CountMin
                           _DriveEEV
                      _UART_SendByte
 ---------------------------------------------------------------------------------
 (3) _UART_SendByte                                        1     1      0      22
                                              5 BANK0      1     1      0
 ---------------------------------------------------------------------------------
 (2) _DriveEEV                                             4     4      0    1005
                                             12 BANK0      4     4      0
                           _delay2ms
                          _eevdriver
 ---------------------------------------------------------------------------------
 (3) _eevdriver                                            7     5      2     284
                                              5 BANK0      7     5      2
 ---------------------------------------------------------------------------------
 (2) _delay2ms                                             6     4      2     630
                                              5 BANK0      6     4      2
 ---------------------------------------------------------------------------------
 (2) _CountMin                                             1     1      0       0
                                              5 BANK0      1     1      0
 ---------------------------------------------------------------------------------
 (2) _CountClk                                             1     1      0       0
                                              5 BANK0      1     1      0
 ---------------------------------------------------------------------------------
 (1) _DriveRelay                                           0     0      0       0
 ---------------------------------------------------------------------------------
 Estimated maximum stack depth 3
 ---------------------------------------------------------------------------------
 (Depth) Function   	        Calls       Base Space   Used Autos Params    Refs
 ---------------------------------------------------------------------------------
 (5) _ISR                                                  5     5      0       0
                                              0 BANK0      5     5      0
 ---------------------------------------------------------------------------------
 Estimated maximum stack depth 5
 ---------------------------------------------------------------------------------

 Call Graph Graphs:

 _main (ROOT)
   _DriveRelay
   _DriveTime
     _CountClk
     _CountMin
     _DriveEEV
       _delay2ms
       _eevdriver
     _UART_SendByte
   _HPSystem
     _HPOuUnit
       _HPShut
       _UART_SendByte
     _HPstart
       _UART_SendByte
       _abs
       _delay2ms
   _TEMPADC
     _ADC
       _delay2ms
   _eevinit
     _delay2ms
     _eevdriver
   _serial_init
   _timer0_init

 _ISR (ROOT)

 Address spaces:
Name               Size   Autos  Total    Cost      Usage
SFR3                 0      0       0       4        0.0%
BITSFR3              0      0       0       4        0.0%
SFR2                 0      0       0       5        0.0%
BITSFR2              0      0       0       5        0.0%
BANK1               5E      0       0       7        0.0%
BITBANK1            5E      0       0       6        0.0%
SFR1                 0      0       0       2        0.0%
BITSFR1              0      0       0       2        0.0%
BANK0               5E     14      44       5       72.3%
BITBANK0            5E      0       0       4        0.0%
SFR0                 0      0       0       1        0.0%
BITSFR0              0      0       0       1        0.0%
COMMON               0      0       0       1        0.0%
BITCOMMON            0      0       0       0        0.0%
CODE                 0      0       0       0        0.0%
DATA                 0      0      44       8        0.0%
ABS                  0      0      44       3        0.0%
NULL                 0      0       0       0        0.0%
STACK                0      0       0       2        0.0%


Microchip Technology PIC Macro Assembler V1.37 build -260352376 
Symbol Table                                                                                   Mon Sep 19 21:23:38 2016

             __CFG_CP$ON 0000                        _T 0020                        pc 0002  
                     l21 0D7A                       l22 0D7E                       l23 0D7F  
                     l24 0D85                       l26 0D86                       l27 0D8C  
                     l19 0D79                       l75 0E00                       l77 0E1C  
                     l78 0E27                       l79 0E32                       l89 0749  
                     _GO 00FA                       _TM 0030                       _t1 0045  
                     _t2 0047                       _ee 003F                       _ff 0041  
                     fsr 0004               DriveTime@i 005C                      l201 0F3A  
                    l202 0F44                      l140 0621                      l205 0F4E  
                    l161 0062                      l170 009C                      l146 068E  
                    l138 0672                      l190 0F0B                      l183 00E9  
                    l175 00A6                      _ADC 0D8E                      l360 0DAB  
                    l354 0D2A                      l196 0F2A                      l385 0DD5  
                    _GIE 005F                      _RB0 0030                      _RB1 0031  
                    _RB2 0032                      _RB4 0034                      _RB5 0035  
                    _RC4 003C                      _RB6 0036                      _RB7 0037  
                    _ISR 0D57                      _PSA 040B                      _abs 0D2F  
                    fsr0 0004                      indf 0000             __CFG_FOSC$XT 0000  
                   ADC@x 0056                     ?_ADC 0056                     ?_ISR 004B  
                   ?_abs 0050                     l1404 0EC8                     l1342 07E5  
                   l1424 0E11                     l1338 07DB                     l1362 0F1D  
                   l1610 00E3                     l1530 06D1                     l1506 065C  
                   l1700 078C                     l1356 0F14                     l1604 00D8  
                   l1470 0FBC                     l1374 0F30                     l1534 06EB  
                   l1464 0FA7                     l1560 005C                     l1544 003C  
                   l1458 0F8D                     l1466 0FAE                     l1714 07B4  
                   l1476 0FD5                     l1564 0065                     l1740 055E  
                   l1478 0FDB                     l1574 0088                     l1582 009F  
                   l1568 0070                     l1752 057D                     l1578 0093  
                   l1770 05E9                     l1754 05A2                     l1842 0DD6  
                   l1834 0DC9                     l1684 0751                     l1596 00CE  
                   l1694 076D                     l1838 0DCF                     l1768 05C2  
                   l1856 0DF1                     l1798 0E77                     _ADON 00F8  
                   _T0IE 005D                     _T0IF 005A                     _T0CS 040D  
                   u1125 0F05                     u2005 0588                     u2015 05CE  
                   u1425 0F5B                     u1435 0F68                     u1515 0643  
                   u1445 0F8A                     u1525 0650                     u1535 0667  
                   u1465 0FB9                     u1565 06B0                     u1575 06BD  
                   u1745 00B7                     u1585 06DC                     u1755 00C4  
                   u1595 06E9                     u1685 0080                     u1945 076B  
                   u1955 078A                     _PEIE 005E                     _INTE 005C  
                   _RBIE 005B                     u1995 0549                     _RCIE 0465  
                   _TMR0 0001          __end_of_TEMPADC 0E98                     _STEP 0504  
                   _TRMT 04C1                     _adcc 003D                     abs@a 0050  
                   _main 0DAF                     btemp 007E                     ltemp 007E  
        __end_of_HPstart 06F7                     start 0011                     ttemp 007E  
                   wtemp 007E                    ??_ADC 0058                    ??_ISR 004B  
                  ??_abs 0052                    ?_main 004B                    _ADRES 001E  
          __CFG_WDTE$OFF 0000                    i1l371 0D66                    _RCSTA 0018  
                  _SPBRG 0099                    _PORTB 0006                    _TRISA 0085  
                  _TRISB 0086                    _TRISC 0087                    _TXREG 0019  
                  _TXSTA 0098                    _Clock 0061         __end_of_HPOuUnit 00F2  
          __CFG_PWRTE$ON 0000                    _Judge 0039                    _nRBPU 040F  
        __end_of_eevinit 0608         __end_of_HPSystem 0D1D                    _temp1 004A  
         __CFG_BOREN$OFF 0000                    pclath 000A                    ltemp0 007E  
                  ltemp1 0082                    ltemp2 0086                    ltemp3 0080  
             _DriveRelay 0D71                    ttemp0 007E                    ttemp1 0081  
                  ttemp2 0084                    ttemp3 0087                    ttemp4 007F  
                  status 0003                    wtemp0 007E                    wtemp1 0080  
                  wtemp2 0082                    wtemp3 0084                    wtemp4 0086  
                  wtemp5 0088                    wtemp6 007F             __end_of_STEP 0514  
        __initialization 0013         __end_of_DriveEEV 1000             __end_of_main 0DF3  
       __end_of_CountClk 0E42         __end_of_CountMin 0D57                   ??_main 0000  
         eevdriver@stepx 0055               _InterTimes 0062                ??_TEMPADC 0059  
                 _ADCON0 001F                   _ADCON1 009F       __size_of_DriveTime 00D2  
              ??_HPstart 0056                   i1l1808 0D61                   _TMR0IF 005A  
                 _HPShut 0EF3         __end_of_delay2ms 07EC                   _RelayS 0049  
           ?_serial_init 004B                   _SysErr 003B             ?_timer0_init 004B  
              ??_eevinit 0057                   saved_w 007E    __end_of_UART_SendByte 0D2F  
            ?_DriveRelay 004B  __end_of__initialization 002D           __pcstackCOMMON 0000  
              ?_HPOuUnit 004B             __pidataBANK0 0D12                ?_HPSystem 004B  
      __end_of_DriveTime 07C9       __size_of_eevdriver 005B                ?_DriveEEV 004B  
             __pbssBANK0 0020                ?_CountClk 004B                ?_CountMin 004B  
                ?_HPShut 004B               __pmaintext 0DAF               ??_HPOuUnit 0051  
             __pintentry 0004               ??_HPSystem 0000      __size_of_DriveRelay 001D  
                _EEVSTEP 005F                ?_delay2ms 0050                  _TEMPADC 0E42  
             ??_DriveEEV 0057               __stringtab 0100               ??_CountClk 0050  
                _HPstart 0608               ??_CountMin 0050        __end_of_fkTempTab 0312  
        __size_of_HPShut 005D                  _Minutes 0063        __end_of_eevdriver 0EF3  
   __size_of_serial_init 0010     __size_of_timer0_init 000C                  __ptext1 00F2  
                __ptext2 07EC                  __ptext3 0514                  __ptext4 0E42  
                __ptext5 0D8E                  __ptext6 0D17                  __ptext7 0608  
                __ptext8 0D2F                  __ptext9 0030                  _eevinit 0514  
           __size_of_ADC 0021             __size_of_ISR 001A             __size_of_abs 0010  
             ??_delay2ms 0000        __end_of_tkTempTab 0504                  clrloop0 0D1E  
   end_of_initialization 002D       TEMPADC@uwAdcSample 005E             __pstringtext 0100  
              DriveEEV@x 0059               eevdriver@x 0050             ??_DriveRelay 0000  
         __end_of_HPShut 0F50        __size_of_HPOuUnit 00C2        __size_of_HPSystem 0006  
     __end_of_DriveRelay 0D8E                _DriveTime 06F7      start_initialization 0013  
       UART_SendByte@dat 0050              __end_of_ADC 0DAF              __end_of_ISR 0D71  
            __end_of_abs 0D3F                 ??_HPShut 0000        __size_of_DriveEEV 00B0  
      __size_of_CountClk 004F        __size_of_CountMin 0018              __pdataBANK0 005F  
 __size_of_UART_SendByte 000A               ?_DriveTime 004B                ___latbits 0001  
          __pcstackBANK0 004B                 ?_TEMPADC 004B        __size_of_delay2ms 0023  
               ?_HPstart 004B                _fkTempTab 0112                _eevdriver 0E98  
               ?_eevinit 004B                delay2ms@a 0052                delay2ms@b 0054  
              delay2ms@x 0050            _UART_SendByte 0D25        interrupt_function 0004  
              _tkTempTab 0312                clear_ram0 0D1D            ??_serial_init 0000  
               _HPOuUnit 0030                 _PORTCBIT 0007            ??_timer0_init 0000  
               _HPSystem 0D17               ?_eevdriver 0050               _ADCON0bits 001F  
            __stringbase 0112              ??_DriveTime 005B                _stepcount 0043  
       __size_of_TEMPADC 0056           ?_UART_SendByte 004B                 _DriveEEV 0F50  
               _CountClk 0DF3                 _CountMin 0D3F         __size_of_HPstart 00EF  
    __end_of_serial_init 07FC       __end_of__stringtab 0112      __end_of_timer0_init 00FE  
       __size_of_eevinit 00F4                 _delay2ms 07C9                 __ptext10 0EF3  
               __ptext11 06F7                 __ptext12 0D25                 __ptext13 0F50  
               __ptext14 0E98                 __ptext15 07C9                 __ptext16 0D3F  
               __ptext17 0DF3                 __ptext18 0D71                 __ptext19 0D57  
          __size_of_main 0044                 eevinit@i 005C              ??_eevdriver 0052  
        ??_UART_SendByte 0000                 intlevel1 0000                stringcode 010A  
            _serial_init 07EC              _timer0_init 00F2                 stringtab 0100  
